LX51 LINKER/LOCATER V4.41                                                               05/23/2018  09:43:07  PAGE 1


LX51 LINKER/LOCATER V4.41, INVOKED BY:
C:\KEIL\C51\BIN\LX51.EXE STARTUP.OBJ, APP.OBJ, FLASHREAD.OBJ, A-BOOT-VERSION.OBJ, A-BOOT.OBJ, C-ASM.OBJ TO APP PRINT (ap
>> p.map) CLASSES (CODE_BANK0 (C:0X0000-C:0X06FF), CONST_VERSION (C:0X0700-C:0X07FF), CODE_BOOT (C:0X0800-C:0X0FFF), COD
>> E (C:0X1000-C:0XF7FF), XDATA (X:0X0001-X:0X1EFF), IDATA (I:0-I:0XFF)) REGFILE (app.reg) DISABLEWARNING (15)


CPU MODE:     8051 MODE
MEMORY MODEL: LARGE WITH FLOATING POINT ARITHMETIC


INPUT MODULES INCLUDED:
  STARTUP.OBJ (?C_STARTUP)
         COMMENT TYPE 1: A51 / ASM51 Assembler
  APP.OBJ (APP)
         COMMENT TYPE 0: C51 V9.01
  FLASHREAD.OBJ (FLASHREAD)
         COMMENT TYPE 0: C51 V9.01
  A-BOOT-VERSION.OBJ (A_BOOT_VERSION)
         COMMENT TYPE 0: C51 V9.01
  A-BOOT.OBJ (A_BOOT)
         COMMENT TYPE 0: AX51 V3.07
  C-ASM.OBJ (C_ASM)
         COMMENT TYPE 0: AX51 V3.07
  C:\KEIL\C51\LIB\C51FPL.LIB (PRINTF)
         COMMENT TYPE 1: A51 / ASM51 Assembler
  C:\KEIL\C51\LIB\C51FPL.LIB (?C?FPROUND)
         COMMENT TYPE 1: A51 / ASM51 Assembler
  C:\KEIL\C51\LIB\C51FPL.LIB (?C?FPCONVERT)
         COMMENT TYPE 1: A51 / ASM51 Assembler
  C:\KEIL\C51\LIB\C51FPL.LIB (?C?FPADD)
         COMMENT TYPE 1: A51 / ASM51 Assembler
  C:\KEIL\C51\LIB\C51FPL.LIB (?C?FPMUL)
         COMMENT TYPE 1: A51 / ASM51 Assembler
  C:\KEIL\C51\LIB\C51FPL.LIB (?C?FPDIV)
         COMMENT TYPE 1: A51 / ASM51 Assembler
  C:\KEIL\C51\LIB\C51FPL.LIB (?C?FTNPWR)
         COMMENT TYPE 1: A51 / ASM51 Assembler
  C:\KEIL\C51\LIB\C51FPL.LIB (?C?FPGETOPN)
         COMMENT TYPE 1: A51 / ASM51 Assembler
  C:\KEIL\C51\LIB\C51L.LIB (?C_INIT)
         COMMENT TYPE 1: A51 / ASM51 Assembler
  C:\KEIL\C51\LIB\C51L.LIB (?C?COPY)
         COMMENT TYPE 1: A51 / ASM51 Assembler
  C:\KEIL\C51\LIB\C51L.LIB (?C?CLDPTR)
         COMMENT TYPE 1: A51 / ASM51 Assembler
  C:\KEIL\C51\LIB\C51L.LIB (?C?CLDOPTR)
         COMMENT TYPE 1: A51 / ASM51 Assembler
  C:\KEIL\C51\LIB\C51L.LIB (?C?CSTPTR)
         COMMENT TYPE 1: A51 / ASM51 Assembler
  C:\KEIL\C51\LIB\C51L.LIB (?C?CSTOPTR)
         COMMENT TYPE 1: A51 / ASM51 Assembler
  C:\KEIL\C51\LIB\C51L.LIB (?C?UIDIV)
         COMMENT TYPE 1: A51 / ASM51 Assembler
  C:\KEIL\C51\LIB\C51L.LIB (?C?ILDIX)
         COMMENT TYPE 1: A51 / ASM51 Assembler
  C:\KEIL\C51\LIB\C51L.LIB (?C?ILDOPTR)
         COMMENT TYPE 1: A51 / ASM51 Assembler
  C:\KEIL\C51\LIB\C51L.LIB (?C?ULDIV)
         COMMENT TYPE 1: A51 / ASM51 Assembler
  C:\KEIL\C51\LIB\C51L.LIB (?C?SLCMP)
         COMMENT TYPE 1: A51 / ASM51 Assembler
  C:\KEIL\C51\LIB\C51L.LIB (?C?ULCMP)
         COMMENT TYPE 1: A51 / ASM51 Assembler
  C:\KEIL\C51\LIB\C51L.LIB (?C?ULSHR)
         COMMENT TYPE 1: A51 / ASM51 Assembler
  C:\KEIL\C51\LIB\C51L.LIB (?C?LSHL)
LX51 LINKER/LOCATER V4.41                                                             05/23/2018  09:43:07  PAGE 2


         COMMENT TYPE 1: A51 / ASM51 Assembler
  C:\KEIL\C51\LIB\C51L.LIB (?C?LLDPTR)
         COMMENT TYPE 1: A51 / ASM51 Assembler
  C:\KEIL\C51\LIB\C51L.LIB (?C?LLDOPTR)
         COMMENT TYPE 1: A51 / ASM51 Assembler
  C:\KEIL\C51\LIB\C51L.LIB (?C?LSTPTR)
         COMMENT TYPE 1: A51 / ASM51 Assembler
  C:\KEIL\C51\LIB\C51L.LIB (?C?LSTOPTR)
         COMMENT TYPE 1: A51 / ASM51 Assembler
  C:\KEIL\C51\LIB\C51L.LIB (?C?LLDPTR0)
         COMMENT TYPE 1: A51 / ASM51 Assembler
  C:\KEIL\C51\LIB\C51L.LIB (?C?LLDOPTR0)
         COMMENT TYPE 1: A51 / ASM51 Assembler
  C:\KEIL\C51\LIB\C51L.LIB (?C?LLDIXDATA)
         COMMENT TYPE 1: A51 / ASM51 Assembler
  C:\KEIL\C51\LIB\C51L.LIB (?C?LSTXDATA)
         COMMENT TYPE 1: A51 / ASM51 Assembler
  C:\KEIL\C51\LIB\C51L.LIB (?C?LSTKXDATA)
         COMMENT TYPE 1: A51 / ASM51 Assembler
  C:\KEIL\C51\LIB\C51L.LIB (?C?PLDIXDATA)
         COMMENT TYPE 1: A51 / ASM51 Assembler
  C:\KEIL\C51\LIB\C51L.LIB (?C?PSTXDATA)
         COMMENT TYPE 1: A51 / ASM51 Assembler
  C:\KEIL\C51\LIB\C51L.LIB (?C?CCASE)
         COMMENT TYPE 1: A51 / ASM51 Assembler
  C:\KEIL\C51\LIB\C51L.LIB (?C?ICALL)
         COMMENT TYPE 1: A51 / ASM51 Assembler
  C:\KEIL\C51\LIB\C51L.LIB (?C?LIMUL)
         COMMENT TYPE 1: A51 / ASM51 Assembler
  C:\KEIL\C51\LIB\C51L.LIB (PUTCHAR)
         COMMENT TYPE 1: A51 / ASM51 Assembler
  C:\KEIL\C51\LIB\C51L.LIB (?C?MEMSET)
         COMMENT TYPE 1: A51 / ASM51 Assembler
  C:\KEIL\C51\LIB\C51L.LIB (?C?LLDIDATA)
         COMMENT TYPE 1: A51 / ASM51 Assembler
  C:\KEIL\C51\LIB\C51L.LIB (?C?LLDXDATA)
         COMMENT TYPE 1: A51 / ASM51 Assembler
  C:\KEIL\C51\LIB\C51L.LIB (?C?LLDPDATA)
         COMMENT TYPE 1: A51 / ASM51 Assembler
  C:\KEIL\C51\LIB\C51L.LIB (?C?LLDCODE)
         COMMENT TYPE 1: A51 / ASM51 Assembler
  C:\KEIL\C51\LIB\C51L.LIB (?C?LLDIDATA0)
         COMMENT TYPE 1: A51 / ASM51 Assembler
  C:\KEIL\C51\LIB\C51L.LIB (?C?LLDXDATA0)
         COMMENT TYPE 1: A51 / ASM51 Assembler
  C:\KEIL\C51\LIB\C51L.LIB (?C?LLDPDATA0)
         COMMENT TYPE 1: A51 / ASM51 Assembler
  C:\KEIL\C51\LIB\C51L.LIB (?C?LLDCODE0)
         COMMENT TYPE 1: A51 / ASM51 Assembler
  C:\KEIL\C51\LIB\C51L.LIB (?C?LSTIDATA)
         COMMENT TYPE 1: A51 / ASM51 Assembler
  C:\KEIL\C51\LIB\C51L.LIB (?C?LSTPDATA)
         COMMENT TYPE 1: A51 / ASM51 Assembler


ACTIVE MEMORY CLASSES OF MODULE:  APP (?C_STARTUP)

BASE        START       END         USED      MEMORY CLASS
==========================================================
C:000000H   C:000000H   C:0006FFH   000153H   CODE_BANK0
C:000000H   C:000700H   C:0007FFH   000004H   CONST_VERSION
C:000000H   C:000800H   C:000FFFH   0001BAH   CODE_BOOT
C:000000H   C:001000H   C:00F7FFH   006798H   CODE
X:000000H   X:000001H   X:001EFFH   00088AH   XDATA
I:000000H   I:000000H   I:0000FFH   000001H   IDATA
LX51 LINKER/LOCATER V4.41                                                             05/23/2018  09:43:07  PAGE 3


I:000000H   I:000000H   I:00007FH   00000DH   DATA
I:000020H.0 I:000020H.0 I:00002FH.7 000001H.1 BIT


MEMORY MAP OF MODULE:  APP (?C_STARTUP)


START     STOP      LENGTH    ALIGN  RELOC    MEMORY CLASS   SEGMENT NAME
=========================================================================

* * * * * * * * * * *   D A T A   M E M O R Y   * * * * * * * * * * * * *
000000H   000007H   000008H   ---    AT..     DATA           "REG BANK 0"
000008H   00000CH   000005H   BYTE   UNIT     DATA           _DATA_GROUP_
00000DH.0 00001FH.7 000013H.0 ---    ---      **GAP**
000020H.0 000021H.0 000001H.1 BIT    UNIT     BIT            _BIT_GROUP_
000021H.1 000021H   000000H.7 ---    ---      **GAP**
000022H   000022H   000001H   BYTE   UNIT     IDATA          ?STACK

* * * * * * * * * * *   C O D E   M E M O R Y   * * * * * * * * * * * * *
000000H   000002H   000003H   ---    OFFS..   CODE           ?CO??C_STARTUP?0
000003H   000005H   000003H   BYTE   OFFS..   CODE           ?APP?00003
000006H   000012H   00000DH   ---    ---      **GAP**
000013H   000015H   000003H   BYTE   OFFS..   CODE           ?APP?00013
000016H   00001AH   000005H   ---    ---      **GAP**
00001BH   00001DH   000003H   BYTE   OFFS..   CODE           ?APP?0001B
00001EH   00002AH   00000DH   ---    ---      **GAP**
00002BH   00002DH   000003H   BYTE   OFFS..   CODE           ?APP?0002B
00002EH   00003AH   00000DH   ---    ---      **GAP**
00003BH   00003DH   000003H   BYTE   OFFS..   CODE           ?APP?0003B
00003EH   00004AH   00000DH   ---    ---      **GAP**
00004BH   00004DH   000003H   BYTE   OFFS..   CODE           ?APP?0004B
00004EH   00006AH   00001DH   ---    ---      **GAP**
00006BH   00006DH   000003H   BYTE   OFFS..   CODE           ?APP?0006B
00006EH   000072H   000005H   ---    ---      **GAP**
000073H   000075H   000003H   BYTE   OFFS..   CODE           ?APP?00073
000076H   00007AH   000005H   ---    ---      **GAP**
00007BH   00007DH   000003H   BYTE   OFFS..   CODE           ?APP?0007B
00007EH   000082H   000005H   ---    ---      **GAP**
000083H   000085H   000003H   BYTE   OFFS..   CODE           ?APP?00083
000086H   00014CH   0000C7H   BYTE   UNIT     CODE_BANK0     ?PR?_HALFLASHP__HALCC2530FLASHWRITE?FLASHREAD
00014DH   0001D8H   00008CH   BYTE   UNIT     CODE_BANK0     ?PR?_HALFLASHP__HALCC2530FLASHREAD?FLASHREAD
0001D9H   0006FFH   000527H   ---    ---      **GAP**
000700H   000703H   000004H   BYTE   UNIT     CONST_VERSION  ?CO?A_BOOT_VERSION
000704H   0007FFH   0000FCH   ---    ---      **GAP**
000800H   0008B4H   0000B5H   BYTE   UNIT     CODE_BOOT      ?PR?ABOOTCOPY?A_BOOT
0008B5H   00094DH   000099H   BYTE   UNIT     CODE_BOOT      ABOOT_XDATA
00094EH   0009A0H   000053H   BYTE   UNIT     CODE_BOOT      ?PR?ABOOTINIT?A_BOOT
0009A1H   0009AEH   00000EH   BYTE   UNIT     CODE_BOOT      ?PR?ABOOTREPROGRAM?A_BOOT
0009AFH   0009B6H   000008H   BYTE   UNIT     CODE_BOOT      ?PR?ABOOTRESET?A_BOOT
0009B7H   0009B9H   000003H   BYTE   UNIT     CODE_BOOT      ?PR?ANPABOOTP__ABOOTREPROGRAM?A_BOOT
0009BAH   000FFFH   000646H   ---    ---      **GAP**
001000H   001A3EH   000A3FH   BYTE   UNIT     CODE           ?C?LIB_CODE
001A3FH   001EC1H   000483H   BYTE   UNIT     CODE           ?PR?PRINTF?PRINTF
001EC2H   0022D9H   000418H   BYTE   UNIT     CODE           ?PR?_UART0SETBAUD?APP
0022DAH   002601H   000328H   BYTE   UNIT     CODE           ?CO?APP
002602H   0028E5H   0002E4H   BYTE   UNIT     CODE           ?C_INITSEG
0028E6H   002B71H   00028CH   BYTE   UNIT     CODE           ?PR?VIRTUALIZETIMERC__0__UPDATEFROMTIMER__RUNTASK?APP
002B72H   002D49H   0001D8H   BYTE   UNIT     CODE           ?PR?TRANSFORMALARMC__0__SET_ALARM?APP
002D4AH   002F0DH   0001C4H   BYTE   UNIT     CODE           ?PR?TRANSFORMALARMC__1__SET_ALARM?APP
002F0EH   0030C6H   0001B9H   BYTE   UNIT     CODE           ?PR?_RFRELIABLEMACSENDP__1__RECEIVEACK__RECEIVE?APP
0030C7H   00327FH   0001B9H   BYTE   UNIT     CODE           ?PR?_RFRELIABLEMACSENDP__0__RECEIVEACK__RECEIVE?APP
003280H   00341EH   00019FH   BYTE   UNIT     CODE           ?PR?_DIGBASEP__RECEIVE__RECEIVE?APP
00341FH   0035B6H   000198H   BYTE   UNIT     CODE           ?PR?_VIRTUALIZETIMERC__0__FIRETIMERS?APP
0035B7H   003701H   00014BH   BYTE   UNIT     CODE           ?PR?_ATOSNETSTDP__RECEIVE__RECEIVE?APP
003702H   003844H   000143H   BYTE   UNIT     CODE           ?PR?_AMRESOURCECENTERP__AMRESOURCE__SEND?APP
LX51 LINKER/LOCATER V4.41                                                             05/23/2018  09:43:07  PAGE 4


003845H   003966H   000122H   BYTE   UNIT     CODE           ?PR?_RFACTIVEMESSAGEP__RECEIVE__RECEIVE?APP
003967H   003A82H   00011CH   BYTE   UNIT     CODE           ?PR?_DIGBASEP__UARTSTREAM__RECEIVEDBYTE?APP
003A83H   003B9BH   000119H   BYTE   UNIT     CODE           ?PR?DIGBASEP__SENDDATA__RUNTASK?APP
003B9CH   003CAFH   000114H   BYTE   UNIT     CODE           ?PR?_RFRELIABLEMACRECEIVEP__1__SUBRECEIVE__RECEIVE?APP
003CB0H   003DBDH   00010EH   BYTE   UNIT     CODE           ?PR?_RFRELIABLEMACRECEIVEP__0__SUBRECEIVE__RECEIVE?APP
003DBEH   003EAEH   0000F1H   BYTE   UNIT     CODE           ?PR?_RFMACBASERECEIVEP__RFHARDWARERX__RXPACKET?APP
003EAFH   003F95H   0000E7H   BYTE   UNIT     CODE           ?PR?_ATOSNETSTDP__RECEIVETRACE?APP
003F96H   004076H   0000E1H   BYTE   UNIT     CODE           ?PR?HPLCC2530TIMER1P__0__INT_TIM1__FIRED?APP
004077H   004152H   0000DCH   BYTE   UNIT     CODE           ?PR?FLASHIEEEP__IEEEPROTECT?APP
004153H   00422DH   0000DBH   BYTE   UNIT     CODE           ?PR?_ATOSNETSTDP__RECEIVETRACEACK?APP
00422EH   004307H   0000DAH   BYTE   UNIT     CODE           ?PR?_RFRELIABLEMACRETRYSENDP__1__AMSEND__SEND?APP
004308H   0043E0H   0000D9H   BYTE   UNIT     CODE           ?PR?_RFRELIABLEMACRETRYSENDP__0__AMSEND__SEND?APP
0043E1H   0044B4H   0000D4H   BYTE   UNIT     CODE           ?PR?_DSNFILTERCENTERP__0__FILTERDSN?APP
0044B5H   004581H   0000CDH   BYTE   UNIT     CODE           ?PR?TRANSFORMCOUNTERC__0__COUNTER__GET?APP
004582H   00464CH   0000CBH   BYTE   UNIT     CODE           ?PR?_RFRELIABLEMACSENDP__1__AMSEND__SEND?APP
00464DH   004717H   0000CBH   BYTE   UNIT     CODE           ?PR?_RFRELIABLEMACSENDP__0__AMSEND__SEND?APP
004718H   0047DDH   0000C6H   BYTE   UNIT     CODE           ?PR?DIGBASEP__BOOT__BOOTED?APP
0047DEH   00489EH   0000C1H   BYTE   UNIT     CODE           ?PR?_HPLCC2530TIMER1P__0__ALARM0__STARTAT?APP
00489FH   00495BH   0000BDH   BYTE   UNIT     CODE           ?PR?_ATOSNETSTDP__TRACEFORWARD?APP
00495CH   004A15H   0000BAH   BYTE   UNIT     CODE           ?PR?_ATOSNETSTDP__ATOSNETSTD__SENDNODESTATUSUP?APP
004A16H   004ACDH   0000B8H   BYTE   UNIT     CODE           ?PR?_RFACTIVEMESSAGEP__CORERECEIVE__RECEIVE?APP
004ACEH   004B84H   0000B7H   BYTE   UNIT     CODE           ?PR?TRANSFORMCOUNTERC__1__COUNTER__GET?APP
004B85H   004C34H   0000B0H   BYTE   UNIT     CODE           ?PR?_RFMACBASECSMAP__CORESEND__SEND?APP
004C35H   004CDAH   0000A6H   BYTE   UNIT     CODE           ?PR?_RFRELIABLEMACACKP__RFRELIABLEMACACK__FILLACKMESSAGE?A
                                                             -PP
004CDBH   004D7AH   0000A0H   BYTE   UNIT     CODE           ?PR?DIGBASEP__SHOWMENU__RUNTASK?APP
004D7BH   004E18H   00009EH   BYTE   UNIT     CODE           ?PR?_QUEUEEXC__0__QUEUEEX__REMOVE?APP
004E19H   004EB2H   00009AH   BYTE   UNIT     CODE           ?C_C51STARTUP
004EB3H   004F4CH   00009AH   BYTE   UNIT     CODE           ?PR?ATOSNETSTDP__SENDDONECHECK__RUNTASK?APP
004F4DH   004FDEH   000092H   BYTE   UNIT     CODE           ?PR?_HPLCC2530TIMER1P__0__ALARM1__STARTAT?APP
004FDFH   005066H   000088H   BYTE   UNIT     CODE           ?PR?_RFMACBASESENDP__0__SUBCORESEND__SENDDONE?APP
005067H   0050EDH   000087H   BYTE   UNIT     CODE           ?PR?DIGBASEP__GETDESTADDRESS?APP
0050EEH   00516DH   000080H   BYTE   UNIT     CODE           ?PR?_SCHEDULERBASICP__TASKBASIC__RUNTASK?APP
00516EH   0051ECH   00007FH   BYTE   UNIT     CODE           ?PR?_VIRTUALIZETIMERC__0__TIMER__STARTONESHOT?APP
0051EDH   00526AH   00007EH   BYTE   UNIT     CODE           ?PR?_VIRTUALIZETIMERC__0__TIMER__STARTPERIODIC?APP
00526BH   0052E8H   00007EH   BYTE   UNIT     CODE           ?PR?RFMACBASESENDP__0__SENDNEXT__RUNTASK?APP
0052E9H   005364H   00007CH   BYTE   UNIT     CODE           ?PR?_HPLCC2530UARTGENERICP__0__UART__GET?APP
005365H   0053DFH   00007BH   BYTE   UNIT     CODE           ?PR?CC2530RANDOMLFSRP__INIT__INIT?APP
0053E0H   00545AH   00007BH   BYTE   UNIT     CODE           ?PR?_FLASHIEEEP__FLASHIEEE__WRITEIEEE?APP
00545BH   0054D3H   000079H   BYTE   UNIT     CODE           ?PR?_AMRESOURCECENTERP__AMRESOURCE__SENDDONE?APP
0054D4H   005548H   000075H   BYTE   UNIT     CODE           ?PR?_VIRTUALIZETIMERC__0__STARTTIMER?APP
005549H   0055BCH   000074H   BYTE   UNIT     CODE           ?PR?RFHARDWARERXP__0__RECEIVENEXTPACKET?APP
0055BDH   00562DH   000071H   BYTE   UNIT     CODE           ?PR?_ATOSNETSTDP__INDEXOFTRACEITEM?APP
00562EH   00569CH   00006FH   BYTE   UNIT     CODE           ?PR?_SCHEDULERBASICP__PUSHTASK?APP
00569DH   005708H   00006CH   BYTE   UNIT     CODE           ?PR?HPLCC2530UARTGENERICP__0__UART__PUTDONE?APP
005709H   005773H   00006BH   BYTE   UNIT     CODE           ?PR?_RFMACBASESENDP__0__INDEXOFMESSAGE?APP
005774H   0057DBH   000068H   BYTE   UNIT     CODE           ?PR?_DIGBASEP__AMSEND__SENDDONE?APP
0057DCH   005842H   000067H   BYTE   UNIT     CODE           ?PR?FLASHIEEEP__FLASHIEEE__WRITETOREGISTER?APP
005843H   0058A6H   000064H   BYTE   UNIT     CODE           ?PR?_ATOSNETSTDP__TRACEBACKWARD?APP
0058A7H   005904H   00005EH   BYTE   UNIT     CODE           ?PR?FLASHIEEEP__READFROMFLASH?APP
005905H   00595EH   00005AH   BYTE   UNIT     CODE           ?PR?_AMRESOURCEP__3__AMSEND__SEND?APP
00595FH   0059B8H   00005AH   BYTE   UNIT     CODE           ?PR?HPLCC2530TIMER1P__0__TOPTASKHANDLER__HANDLER?APP
0059B9H   005A12H   00005AH   BYTE   UNIT     CODE           ?PR?DSNFILTERCENTERP__0__FINDNEXTADDRESS?APP
005A13H   005A6AH   000058H   BYTE   UNIT     CODE           ?PR?_AMRESOURCEP__0__AMSEND__SEND?APP
005A6BH   005ABEH   000054H   BYTE   UNIT     CODE           ?PR?_RFRELIABLEMACSENDP__1__SUBAMSEND__SENDDONE?APP
005ABFH   005B12H   000054H   BYTE   UNIT     CODE           ?PR?_RFRELIABLEMACSENDP__0__SUBAMSEND__SENDDONE?APP
005B13H   005B64H   000052H   BYTE   UNIT     CODE           ?PR?_RFRELIABLEMACPACKETP__PACKET__GETPAYLOAD?APP
005B65H   005BB6H   000052H   BYTE   UNIT     CODE           CASM
005BB7H   005C06H   000050H   BYTE   UNIT     CODE           ?PR?RFMACBASECSMAP__DOGO__RUNTASK?APP
005C07H   005C55H   00004FH   BYTE   UNIT     CODE           ?PR?HALCC2530UART0ISRP__0__RXTASKHANDLER__HANDLER?APP
005C56H   005CA2H   00004DH   BYTE   UNIT     CODE           ?PR?_AMRESOURCEP__2__AMSEND__SEND?APP
005CA3H   005CEDH   00004BH   BYTE   UNIT     CODE           ?PR?_AMRESOURCEP__1__AMSEND__SEND?APP
005CEEH   005D38H   00004BH   BYTE   UNIT     CODE           ?PR?_ATOSNETSTDP__TRACEEND?APP
005D39H   005D83H   00004BH   BYTE   UNIT     CODE           ?PR?TRANSFORMCOUNTERC__0__COUNTERFROM__OVERFLOW?APP
005D84H   005DCDH   00004AH   BYTE   UNIT     CODE           ?PR?ATOS_DEBUG_UART_PRINT?APP
LX51 LINKER/LOCATER V4.41                                                             05/23/2018  09:43:07  PAGE 5


005DCEH   005E16H   000049H   BYTE   UNIT     CODE           ?PR?_RFMACBASESENDP__0__ENQUEUEMESSAGE?APP
005E17H   005E5EH   000048H   BYTE   UNIT     CODE           ?PR?ALARMTOTIMERC__0__FIREDTASK__RUNTASK?APP
005E5FH   005EA6H   000048H   BYTE   UNIT     CODE           ?PR?SCHEDULERBASICP__POPTASK?APP
005EA7H   005EEDH   000047H   BYTE   UNIT     CODE           ?PR?_ALARMTOTIMERC__0__START?APP
005EEEH   005F34H   000047H   BYTE   UNIT     CODE           ?PR?_DSNFILTERCENTERP__0__INDEXOFADDRESS?APP
005F35H   005F7AH   000046H   BYTE   UNIT     CODE           ?PR?RFRELIABLEMACRETRYSENDP__1__RESENDTASK__RUNTASK?APP
005F7BH   005FC0H   000046H   BYTE   UNIT     CODE           ?PR?RFRELIABLEMACRETRYSENDP__0__RESENDTASK__RUNTASK?APP
005FC1H   006006H   000046H   BYTE   UNIT     CODE           ?PR?_RFRELIABLEMACSENDP__1__SIGNALDONE?APP
006007H   00604BH   000045H   BYTE   UNIT     CODE           ?PR?_QUEUEEXC__0__QUEUEEX__ENQUEUE?APP
00604CH   006090H   000045H   BYTE   UNIT     CODE           ?PR?_SCHEDULERBASICP__ISWAITING?APP
006091H   0060D5H   000045H   BYTE   UNIT     CODE           ?PR?RFRELIABLEMACSENDP__1__SIGNALDONETASK__RUNTASK?APP
0060D6H   00611AH   000045H   BYTE   UNIT     CODE           ?PR?RFRELIABLEMACSENDP__0__SIGNALDONETASK__RUNTASK?APP
00611BH   00615FH   000045H   BYTE   UNIT     CODE           ?PR?RFINTERRUPTSP__INT_RF__FIRED?APP
006160H   0061A4H   000045H   BYTE   UNIT     CODE           ?PR?RFPACKETP__AMPACKET__ADDRESS?APP
0061A5H   0061E9H   000045H   BYTE   UNIT     CODE           ?PR?_RFPACKETP__PACKET__GETPAYLOAD?APP
0061EAH   00622DH   000044H   BYTE   UNIT     CODE           ?PR?SCHEDULERBASICP__SCHEDULER__TASKLOOP?APP
00622EH   006271H   000044H   BYTE   UNIT     CODE           ?PR?_RFRELIABLEMACSENDP__0__SIGNALDONE?APP
006272H   0062B5H   000044H   BYTE   UNIT     CODE           ?PR?TOPTASKMGRP__TOPTASKMGR__HASTASKS?APP
0062B6H   0062F3H   00003EH   BYTE   UNIT     CODE           ?PR?_PLATFORMP__CLOCKSETMAINSRC?APP
0062F4H   006330H   00003DH   BYTE   UNIT     CODE           ?PR?_RFRELIABLEMACACKP__RFRELIABLEMACACK__RECEIVEACKMESSAG
                                                             -E?APP
006331H   00636DH   00003DH   BYTE   UNIT     CODE           ?PR?HPLCC2530TIMER1P__0__INIT__INIT?APP
00636EH   0063A9H   00003CH   BYTE   UNIT     CODE           ?PR?RFHARDWARETXP__RFHARDWARETX__TXGO?APP
0063AAH   0063E5H   00003CH   BYTE   UNIT     CODE           ?PR?RFHARDWARERXP__0__INTERRUPTFIFOP__FIRED?APP
0063E6H   006421H   00003CH   BYTE   UNIT     CODE           ?PR?_OLEDP__DO_DRAW_CHAR?C_ASM
006422H   00645CH   00003BH   BYTE   UNIT     CODE           ?PR?TRANSFORMALARMC__0__ALARM__GETALARM?APP
00645DH   006497H   00003BH   BYTE   UNIT     CODE           ?PR?TOPTASKMGRP__TOPTASKMGR__RUNTASKS?APP
006498H   0064D0H   000039H   BYTE   UNIT     CODE           ?PR?QUEUEEXC__0__QUEUEEX__DEQUEUE?APP
0064D1H   006509H   000039H   BYTE   UNIT     CODE           ?PR?ATOSMACP__SUBATOSCONTROL__START?APP
00650AH   006541H   000038H   BYTE   UNIT     CODE           ?PR?_RFRELIABLEMACACKP__FILLACKMESSAGEDEFAULT?APP
006542H   006578H   000037H   BYTE   UNIT     CODE           ?PR?_RFHARDWARERXP__0__READRFBUF?APP
006579H   0065AEH   000036H   BYTE   UNIT     CODE           ?PR?_DSNFILTERCENTERP__0__DSNFILTER__FILTER?APP
0065AFH   0065E3H   000035H   BYTE   UNIT     CODE           ?PR?_RFRELIABLEMACRETRYSENDP__1__DOSEND?APP
0065E4H   006618H   000035H   BYTE   UNIT     CODE           ?PR?_RFRELIABLEMACRETRYSENDP__0__DOSEND?APP
006619H   00664CH   000034H   BYTE   UNIT     CODE           ?PR?_RFMACBASESENDP__0__CORESEND__SEND?APP
00664DH   00667FH   000033H   BYTE   UNIT     CODE           ?PR?_HALFLASHP__HALFLASH__WRITE?APP
006680H   0066B2H   000033H   BYTE   UNIT     CODE           ?PR?RFMACBASECSMAP__INITBACKOFFTIMER?APP
0066B3H   0066E5H   000033H   BYTE   UNIT     CODE           ?PR?_VIRTUALIZETIMERC__0__TIMER__FIRED?APP
0066E6H   006718H   000033H   BYTE   UNIT     CODE           ?PR?RFMACBASECSMAP__CONGESTIONBACKOFFTIMER?APP
006719H   00674BH   000033H   BYTE   UNIT     CODE           ?PR?MAIN?APP
00674CH   00677EH   000033H   BYTE   UNIT     CODE           ?PR?FLASHIEEEP__FLASHIEEE__WRITETOAM?APP
00677FH   0067B1H   000033H   BYTE   UNIT     CODE           ?PR?_RFRELIABLEMACPACKETP__PACKETEX__ISVALIDPACKET?APP
0067B2H   0067E3H   000032H   BYTE   UNIT     CODE           ?PR?RFPOWERP__RFPOWER__RADIOON?APP
0067E4H   006814H   000031H   BYTE   UNIT     CODE           ?PR?VIRTUALIZETIMERC__0__TIMERFROM__FIRED?APP
006815H   006845H   000031H   BYTE   UNIT     CODE           ?PR?REALMAINP__SOFTWAREINIT__INIT?APP
006846H   006876H   000031H   BYTE   UNIT     CODE           ?PR?HPLCC2530UARTGENERICP__0__UARTSTDCONTROL__START?APP
006877H   0068A7H   000031H   BYTE   UNIT     CODE           ?PR?TRANSFORMALARMC__1__ALARMFROM__FIRED?APP
0068A8H   0068D8H   000031H   BYTE   UNIT     CODE           ?PR?TRANSFORMALARMC__0__ALARMFROM__FIRED?APP
0068D9H   006909H   000031H   BYTE   UNIT     CODE           ?PR?_RFPACKETP__AMPACKET__ISFORME?APP
00690AH   00693AH   000031H   BYTE   UNIT     CODE           ?PR?_RFRELIABLEMACRETRYSENDP__1__SIGNALDONE?APP
00693BH   00696BH   000031H   BYTE   UNIT     CODE           ?PR?_RFRELIABLEMACRETRYSENDP__0__SIGNALDONE?APP
00696CH   00699BH   000030H   BYTE   UNIT     CODE           ?PR?_TRANSFORMALARMC__1__ALARM__START?APP
00699CH   0069CBH   000030H   BYTE   UNIT     CODE           ?PR?_PLATFORMP__CLOCKSELECT32K?APP
0069CCH   0069FAH   00002FH   BYTE   UNIT     CODE           ?PR?_ATOSNETSTDP__RECEIVESETIEEE?APP
0069FBH   006A27H   00002DH   BYTE   UNIT     CODE           ?PR?_ALARMTOTIMERC__0__TIMER__STARTONESHOTAT?APP
006A28H   006A54H   00002DH   BYTE   UNIT     CODE           ?PR?ATOSMACP__ATOSCONTROL__START?APP
006A55H   006A81H   00002DH   BYTE   UNIT     CODE           ?PR?_SCHEDULERBASICP__TASKBASIC__POSTTASK?APP
006A82H   006AAEH   00002DH   BYTE   UNIT     CODE           ?PR?OLEDP__DO_CLS?C_ASM
006AAFH   006ADAH   00002CH   BYTE   UNIT     CODE           ?PR?PLATFORMP__INIT__INIT?APP
006ADBH   006B05H   00002BH   BYTE   UNIT     CODE           ?PR?_RFHARDWARETXP__WRITETXFIFO?APP
006B06H   006B30H   00002BH   BYTE   UNIT     CODE           ?PR?TRANSFORMCOUNTERC__1__COUNTERFROM__OVERFLOW?APP
006B31H   006B5AH   00002AH   BYTE   UNIT     CODE           ?PR?RFCONFIGP__INIT__INIT?APP
006B5BH   006B84H   00002AH   BYTE   UNIT     CODE           ?PR?RFMACBASECSMAP__ATOSCONTROL__START?APP
006B85H   006BAEH   00002AH   BYTE   UNIT     CODE           ?PR?RFMACBASECSMAP__BACKOFFTIMER__FIRED?APP
006BAFH   006BD8H   00002AH   BYTE   UNIT     CODE           ?PR?HPLCC2530TIMER1P__0__COUNTER__GET?APP
LX51 LINKER/LOCATER V4.41                                                             05/23/2018  09:43:07  PAGE 6


006BD9H   006C01H   000029H   BYTE   UNIT     CODE           ?PR?_UART0PUTCHAR?APP
006C02H   006C29H   000028H   BYTE   UNIT     CODE           ?PR?_QUEUEEXC__0__QUEUEEX__ELEMENT?APP
006C2AH   006C50H   000027H   BYTE   UNIT     CODE           ?PR?_FLASHIEEEP__FLASHIEEE__GETIEEE?APP
006C51H   006C77H   000027H   BYTE   UNIT     CODE           ?PR?RFHARDWARERXP__0__TOPTASKHANDLER__HANDLER?APP
006C78H   006C9EH   000027H   BYTE   UNIT     CODE           ?PR?_TOPTASKMGRP__TOPTASKHANDLER__HANDLER?APP
006C9FH   006CC5H   000027H   BYTE   UNIT     CODE           ?PR?PUTCHAR?PUTCHAR
006CC6H   006CEBH   000026H   BYTE   UNIT     CODE           ?PR?_RFRELIABLEMACRECEIVEP__1__SENDACK?APP
006CECH   006D11H   000026H   BYTE   UNIT     CODE           ?PR?_RFRELIABLEMACRECEIVEP__0__SENDACK?APP
006D12H   006D36H   000025H   BYTE   UNIT     CODE           ?PR?RFPACKETP__AMPACKET__LOCALGROUP?APP
006D37H   006D5BH   000025H   BYTE   UNIT     CODE           ?PR?QUEUEEXC__0__QUEUEEX__HEAD?APP
006D5CH   006D80H   000025H   BYTE   UNIT     CODE           ?PR?DSNFILTERCENTERP__0__INIT__INIT?APP
006D81H   006DA5H   000025H   BYTE   UNIT     CODE           ?PR?MCUSLEEPP__MCUSLEEP__SLEEP?APP
006DA6H   006DCAH   000025H   BYTE   UNIT     CODE           ?PR?_HALFLASHP__HALFLASH__ERASE?APP
006DCBH   006DEEH   000024H   BYTE   UNIT     CODE           ?PR?_AMRESOURCECENTERP__CORESEND__SENDDONE?APP
006DEFH   006E12H   000024H   BYTE   UNIT     CODE           ?PR?RFCONFIGP__WRITEFILTER?APP
006E13H   006E36H   000024H   BYTE   UNIT     CODE           ?PR?HALCC2530UART0ISRP__0__INT_UART0_RX__FIRED?APP
006E37H   006E5AH   000024H   BYTE   UNIT     CODE           ?PR?WATCHDOGP__WATCHDOG__RESETCPU?APP
006E5BH   006E7DH   000023H   BYTE   UNIT     CODE           ?PR?__VECTOR_16?APP
006E7EH   006EA0H   000023H   BYTE   UNIT     CODE           ?PR?__VECTOR_9?APP
006EA1H   006EC0H   000020H   BYTE   UNIT     CODE           ?PR?_ATOSNETSTDP__RECEIVENODESTATUSUP?APP
006EC1H   006EDFH   00001FH   BYTE   UNIT     CODE           ?PR?_UART0INIT?APP
006EE0H   006EFEH   00001FH   BYTE   UNIT     CODE           ?PR?_HALFLASHP__HALFLASH__READ?APP
006EFFH   006F1DH   00001FH   BYTE   UNIT     CODE           ?PR?__VECTOR_0?APP
006F1EH   006F3CH   00001FH   BYTE   UNIT     CODE           ?PR?__VECTOR_2?APP
006F3DH   006F5AH   00001EH   BYTE   UNIT     CODE           ?PR?___NESC_NTOH_LEUINT16?APP
006F5BH   006F78H   00001EH   BYTE   UNIT     CODE           ?PR?RFMACBASECSMAP__SIGNALDONETASK__RUNTASK?APP
006F79H   006F96H   00001EH   BYTE   UNIT     CODE           ?PR?_ATOSNETSTDP__RECEIVEDISCOVERY?APP
006F97H   006FB3H   00001DH   BYTE   UNIT     CODE           ?PR?_TRANSFORMALARMC__1__ALARM__STARTAT?APP
006FB4H   006FD0H   00001DH   BYTE   UNIT     CODE           ?PR?_TRANSFORMALARMC__0__ALARM__STARTAT?APP
006FD1H   006FEDH   00001DH   BYTE   UNIT     CODE           ?PR?RFHARDWARERXP__0__STDCONTROL__START?APP
006FEEH   007009H   00001CH   BYTE   UNIT     CODE           ?PR?RFMACBASESENDP__0__ATOSCONTROL__START?APP
00700AH   007025H   00001CH   BYTE   UNIT     CODE           ?PR?RFRELIABLEMACSENDP__1__ATOSCONTROL__START?APP
007026H   007041H   00001CH   BYTE   UNIT     CODE           ?PR?_ATOSNETSTDP__RECEIVEREBOOT?APP
007042H   00705CH   00001BH   BYTE   UNIT     CODE           ?PR?RFRELIABLEMACRECEIVEP__0__ATOSCONTROL__START?APP
00705DH   007077H   00001BH   BYTE   UNIT     CODE           ?PR?RFRELIABLEMACRECEIVEP__1__ATOSCONTROL__START?APP
007078H   007091H   00001AH   BYTE   UNIT     CODE           ?PR?RFRELIABLEMACSENDP__0__ATOSCONTROL__START?APP
007092H   0070ABH   00001AH   BYTE   UNIT     CODE           ?PR?_RFPACKETP__PACKETEX__ISVALIDPACKET?APP
0070ACH   0070C4H   000019H   BYTE   UNIT     CODE           ?PR?SCHEDULERBASICP__SCHEDULER__INIT?APP
0070C5H   0070DDH   000019H   BYTE   UNIT     CODE           ?PR?___NESC_HTON_LEUINT16?APP
0070DEH   0070F6H   000019H   BYTE   UNIT     CODE           ?PR?_VIRTUALIZETIMERC__0__TIMER__STOP?APP
0070F7H   00710FH   000019H   BYTE   UNIT     CODE           ?PR?RFRELIABLEMACRETRYSENDP__0__ATOSCONTROL__START?APP
007110H   007128H   000019H   BYTE   UNIT     CODE           ?PR?RFRELIABLEMACRETRYSENDP__1__ATOSCONTROL__START?APP
007129H   007141H   000019H   BYTE   UNIT     CODE           ?PR?RFMACBASECSMAP__CONGESTION?APP
007142H   007159H   000018H   BYTE   UNIT     CODE           ?PR?TRANSFORMALARMC__0__ALARM__GETNOW?APP
00715AH   007171H   000018H   BYTE   UNIT     CODE           ?PR?ALARMTOTIMERC__0__TIMER__GETNOW?APP
007172H   007189H   000018H   BYTE   UNIT     CODE           ?PR?TRANSFORMALARMC__1__ALARM__GETNOW?APP
00718AH   0071A1H   000018H   BYTE   UNIT     CODE           ?PR?RFHARDWAREP__ATOSCONTROL__START?APP
0071A2H   0071B9H   000018H   BYTE   UNIT     CODE           ?PR?ACTIVEMESSAGEADDRESSC__AMADDRESS?APP
0071BAH   0071D0H   000017H   BYTE   UNIT     CODE           ?PR?___NESC_HTON_INT8?APP
0071D1H   0071E7H   000017H   BYTE   UNIT     CODE           ?PR?_HALCC2530UART0ISRP__0__UART0__PUT?APP
0071E8H   0071FEH   000017H   BYTE   UNIT     CODE           ?PR?_RFMACBASECSMAP__SIGNALDONE?APP
0071FFH   007215H   000017H   BYTE   UNIT     CODE           ?PR?CC2530RANDOMLFSRP__RANDOM__RAND16?APP
007216H   00722BH   000016H   BYTE   UNIT     CODE           ?PR?__NESC_ATOMIC_START?APP
00722CH   007241H   000016H   BYTE   UNIT     CODE           ?PR?_RFHARDWARETXP__RFHARDWARETX__TXPREPARE?APP
007242H   007257H   000016H   BYTE   UNIT     CODE           ?PR?RFHARDWARERXP__0__ATOSSCHEDULER__PERIODSCHEDULER?APP
007258H   00726CH   000015H   BYTE   UNIT     CODE           ?PR?___NESC_HTON_UINT8?APP
00726DH   007281H   000015H   BYTE   UNIT     CODE           ?PR?_RFRELIABLEMACPACKETP__PACKETEX__GETPACKETHEADER?APP
007282H   007296H   000015H   BYTE   UNIT     CODE           ?PR?_ATOS_DEBUG_UART_PUTC?APP
007297H   0072ABH   000015H   BYTE   UNIT     CODE           ?PR?_RFRELIABLEMACPACKETP__PACKET__PAYLOADLENGTH?APP
0072ACH   0072BFH   000014H   BYTE   UNIT     CODE           ?PR?_ATOSNETSTDP__AMSEND__SENDDONE?APP
0072C0H   0072D3H   000014H   BYTE   UNIT     CODE           ?PR?SCHEDULERBASICP__SCHEDULER__RUNNEXTTASK?APP
0072D4H   0072E6H   000013H   BYTE   UNIT     CODE           ?PR?___NESC_HTON_LEUINT8?APP
0072E7H   0072F9H   000013H   BYTE   UNIT     CODE           ?PR?RFINTERRUPTSP__INT_RFERR__FIRED?APP
0072FAH   00730BH   000012H   BYTE   UNIT     CODE           ?PR?___NESC_NTOH_UINT8?APP
00730CH   00731DH   000012H   BYTE   UNIT     CODE           ?PR?_RFRELIABLEMACRETRYSENDP__1__SUBAMSEND__SENDDONE?APP
LX51 LINKER/LOCATER V4.41                                                             05/23/2018  09:43:07  PAGE 7


00731EH   00732FH   000012H   BYTE   UNIT     CODE           ?PR?_RFRELIABLEMACPACKETP__PACKET__SETPAYLOADLENGTH?APP
007330H   007341H   000012H   BYTE   UNIT     CODE           ?PR?_RFRELIABLEMACRETRYSENDP__0__SUBAMSEND__SENDDONE?APP
007342H   007353H   000012H   BYTE   UNIT     CODE           ?PR?_DIGBASEP__UARTSTREAM__RECEIVEDONE?APP
007354H   007365H   000012H   BYTE   UNIT     CODE           ?PR?_DIGBASEP__UARTSTREAM__SENDDONE?APP
007366H   007377H   000012H   BYTE   UNIT     CODE           ?PR?_RFPACKETP__AMPACKET__SOURCE?APP
007378H   007388H   000011H   BYTE   UNIT     CODE           ?PR?_RFPACKETP__PACKET__PAYLOADLENGTH?APP
007389H   007399H   000011H   BYTE   UNIT     CODE           ?PR?QUEUEEXC__0__QUEUEEX__CLEAR?APP
00739AH   0073AAH   000011H   BYTE   UNIT     CODE           ?PR?___NESC_NTOH_INT8?APP
0073ABH   0073BBH   000011H   BYTE   UNIT     CODE           ?PR?_RFRELIABLEMACACKP__RFRELIABLEMACACKEVENT__DEFAULT__FI
                                                             -LLACKMESSAGE?APP
0073BCH   0073CCH   000011H   BYTE   UNIT     CODE           ?PR?_ATOSNETSTDP__PACKET__PAYLOADLENGTH?APP
0073CDH   0073DCH   000010H   BYTE   UNIT     CODE           ?PR?FLASHIEEEP__INIT__INIT?APP
0073DDH   0073ECH   000010H   BYTE   UNIT     CODE           ?PR?_ACTIVEMESSAGEADDRESSC__ACTIVEMESSAGEADDRESS__SETADDRE
                                                             -SS?APP
0073EDH   0073FCH   000010H   BYTE   UNIT     CODE           ?PR?_RFPACKETP__AMPACKET__SETDESTINATION?APP
0073FDH   00740CH   000010H   BYTE   UNIT     CODE           ?PR?QUEUEEXC__0__QUEUEEX__EMPTY?APP
00740DH   00741CH   000010H   BYTE   UNIT     CODE           ?PR?_ECOMBINE?APP
00741DH   00742CH   000010H   BYTE   UNIT     CODE           ?PR?AMRESOURCECENTERP__ATOSCONTROL__START?APP
00742DH   00743BH   00000FH   BYTE   UNIT     CODE           ?PR?ATOSNETSTDP__REBOOTTASK__RUNTASK?APP
00743CH   00744AH   00000FH   BYTE   UNIT     CODE           ?PR?_RFRELIABLEMACRECEIVEP__0__AMSENDACK__SENDDONE?APP
00744BH   007459H   00000FH   BYTE   UNIT     CODE           ?PR?_RFRELIABLEMACRECEIVEP__1__AMSENDACK__SENDDONE?APP
00745AH   007468H   00000FH   BYTE   UNIT     CODE           ?PR?RFHARDWARETXP__STDCONTROL__START?APP
007469H   007477H   00000FH   BYTE   UNIT     CODE           ?PR?RFCONFIGP__WRITECHANNEL?APP
007478H   007486H   00000FH   BYTE   UNIT     CODE           ?PR?_RFACTIVEMESSAGEP__SNOOP__DEFAULT__RECEIVE?APP
007487H   007495H   00000FH   BYTE   UNIT     CODE           ?PR?_RFPACKETP__AMPACKET__GROUP?APP
007496H   0074A4H   00000FH   BYTE   UNIT     CODE           ?PR?_RFACTIVEMESSAGEP__RECEIVE__DEFAULT__RECEIVE?APP
0074A5H   0074B3H   00000FH   BYTE   UNIT     CODE           ?PR?_AMRESOURCECENTERP__AMRESOURCE__DEFAULT__SENDDONE?APP
0074B4H   0074C2H   00000FH   BYTE   UNIT     CODE           ?PR?_OLEDP__WRITE_BUF?C_ASM
0074C3H   0074D1H   00000FH   BYTE   UNIT     CODE           ?PR?_OLEDP__WRITE_CMD?C_ASM
0074D2H   0074DFH   00000EH   BYTE   UNIT     CODE           ?PR?___NESC_NTOH_LEUINT8?APP
0074E0H   0074ECH   00000DH   BYTE   UNIT     CODE           ?PR?_RFPACKETP__AMPACKET__DESTINATION?APP
0074EDH   0074F9H   00000DH   BYTE   UNIT     CODE           ?PR?RFINTERRUPTSP__INTERRUPTRFERR__ENABLERISINGEDGE?APP
0074FAH   007506H   00000DH   BYTE   UNIT     CODE           ?PR?RFACTIVEMESSAGEP__ATOSCONTROL__START?APP
007507H   007513H   00000DH   BYTE   UNIT     CODE           ?PR?RFHARDWARERXP__0__INTERRUPTRFERR__FIRED?APP
007514H   00751FH   00000CH   BYTE   UNIT     CODE           ?PR?_UART0PINMAP?APP
007520H   00752BH   00000CH   BYTE   UNIT     CODE           ?PR?_RFPACKETP__AMPACKET__SETGROUP?APP
00752CH   007537H   00000CH   BYTE   UNIT     CODE           ?PR?_ATOSNETSTDP__ATOSNETSTD__DEFAULT__BEFORENODESTATUSUP?
                                                             -APP
007538H   007543H   00000CH   BYTE   UNIT     CODE           ?PR?HALCC2530UART0ISRP__0__UART0STDCONTROL__START?APP
007544H   00754FH   00000CH   BYTE   UNIT     CODE           ?PR?RFCONFIGP__RFCONFIGWRITE?APP
007550H   00755BH   00000CH   BYTE   UNIT     CODE           ?PR?_ATOSNETSTDP__ATOSNETSTD__DEFAULT__RECEIVEDTRACEACK?AP
                                                             -P
00755CH   007567H   00000CH   BYTE   UNIT     CODE           ?PR?_ATOSNETSTDP__ATOSNETSTD__DEFAULT__RECEIVEDTRACE?APP
007568H   007573H   00000CH   BYTE   UNIT     CODE           ?PR?_ATOSNETSTDP__ATOSNETSTD__DEFAULT__RECEIVEDREBOOT?APP
007574H   00757FH   00000CH   BYTE   UNIT     CODE           ?PR?_ATOSNETSTDP__ATOSNETSTD__DEFAULT__RECEIVEDSETIEEE?APP
007580H   00758BH   00000CH   BYTE   UNIT     CODE           ?PR?_ATOSNETSTDP__ATOSNETSTD__DEFAULT__RECEIVEDDISCOVERY?A
                                                             -PP
00758CH   007597H   00000CH   BYTE   UNIT     CODE           ?PR?_ATOSNETSTDP__ATOSNETSTD__DEFAULT__RECEIVEDNODESTATUSU
                                                             -P?APP
007598H   0075A3H   00000CH   BYTE   UNIT     CODE           ?PR?_RFRELIABLEMACACKP__RFRELIABLEMACACKEVENT__DEFAULT__RE
                                                             -CEIVEACKMESSAGE?APP
0075A4H   0075AFH   00000CH   BYTE   UNIT     CODE           ?PR?__VECTOR_13?APP
0075B0H   0075BBH   00000CH   BYTE   UNIT     CODE           ?PR?__VECTOR_15?APP
0075BCH   0075C6H   00000BH   BYTE   UNIT     CODE           ?PR?ATOS_DEBUG_UART_INIT?APP
0075C7H   0075D1H   00000BH   BYTE   UNIT     CODE           ?PR?HPLCC2530TIMER1P__0__COUNTER__ISOVERFLOWPENDING?APP
0075D2H   0075DCH   00000BH   BYTE   UNIT     CODE           ?PR?ATOSNETSTDP__NODESTATUSUPTASK__RUNTASK?APP
0075DDH   0075E7H   00000BH   BYTE   UNIT     CODE           ?PR?_RFPACKETP__AMPACKET__TYPE?APP
0075E8H   0075F2H   00000BH   BYTE   UNIT     CODE           ?PR?FLASHIEEEP__FLASHIEEE__GETPANID?APP
0075F3H   0075FDH   00000BH   BYTE   UNIT     CODE           ?PR?FLASHIEEEP__FLASHIEEE__GETSHORTADDRESS?APP
0075FEH   007607H   00000AH   BYTE   UNIT     CODE           ?PR?RFPACKETP__ACTIVEMESSAGEADDRESS__CHANGED?APP
007608H   007611H   00000AH   BYTE   UNIT     CODE           ?PR?_RFPACKETP__AMPACKET__SETSOURCE?APP
007612H   00761BH   00000AH   BYTE   UNIT     CODE           ?PR?QUEUEEXC__0__QUEUEEX__SIZE?APP
00761CH   007625H   00000AH   BYTE   UNIT     CODE           ?PR?RFRELIABLEMACSENDP__0__ACKTIMER__FIRED?APP
007626H   00762FH   00000AH   BYTE   UNIT     CODE           ?PR?RFRELIABLEMACSENDP__0__TIMEOUTTIMER__FIRED?APP
007630H   007639H   00000AH   BYTE   UNIT     CODE           ?PR?RFRELIABLEMACSENDP__1__ACKTIMER__FIRED?APP
LX51 LINKER/LOCATER V4.41                                                             05/23/2018  09:43:07  PAGE 8


00763AH   007643H   00000AH   BYTE   UNIT     CODE           ?PR?RFRELIABLEMACSENDP__1__TIMEOUTTIMER__FIRED?APP
007644H   00764DH   00000AH   BYTE   UNIT     CODE           ?PR?RFINTERRUPTSP__INTERRUPTFIFOP__ENABLERISINGEDGE?APP
00764EH   007657H   00000AH   BYTE   UNIT     CODE           ?PR?RFPOWERP__RFPOWER__RXON?APP
007658H   007660H   000009H   BYTE   UNIT     CODE           ?PR?___NESC_ATOMIC_END?APP
007661H   007669H   000009H   BYTE   UNIT     CODE           ?PR?RFRELIABLEMACRECEIVEP__1__SENDACKTASK__RUNTASK?APP
00766AH   007672H   000009H   BYTE   UNIT     CODE           ?PR?RFRELIABLEMACRECEIVEP__0__SENDACKTASK__RUNTASK?APP
007673H   00767BH   000009H   BYTE   UNIT     CODE           ?PR?_HALCC2530UART0ISRP__0__DOUART0INIT?APP
00767CH   007684H   000009H   BYTE   UNIT     CODE           ?PR?RFCONFIGP__WRITETXPOWER?APP
007685H   00768DH   000009H   BYTE   UNIT     CODE           ?PR?RFRELIABLEMACPACKETP__PACKET__MAXPAYLOADLENGTH?APP
00768EH   007696H   000009H   BYTE   UNIT     CODE           ?PR?_HPLCC2530TIMER1P__0__CAPTURECHANNEL2__DEFAULT__CAPTUR
                                                             -ED?APP
007697H   00769EH   000008H   BYTE   UNIT     CODE           ?PR?QUEUEEXC__0__QUEUEEX__MAXSIZE?APP
00769FH   0076A6H   000008H   BYTE   UNIT     CODE           ?PR?__VECTOR_7?APP
0076A7H   0076AEH   000008H   BYTE   UNIT     CODE           ?PR?__VECTOR_3?APP
0076AFH   0076B6H   000008H   BYTE   UNIT     CODE           ?PR?__VECTOR_14?APP
0076B7H   0076BEH   000008H   BYTE   UNIT     CODE           ?PR?__VECTOR_5?APP
0076BFH   0076C5H   000007H   BYTE   UNIT     CODE           ?PR?UART0SETMODE?APP
0076C6H   0076CCH   000007H   BYTE   UNIT     CODE           ?PR?_RFPACKETP__PACKET__SETPAYLOADLENGTH?APP
0076CDH   0076D3H   000007H   BYTE   UNIT     CODE           ?PR?UART0INTENABLE?APP
0076D4H   0076DAH   000007H   BYTE   UNIT     CODE           ?PR?RFCONFIGP__WRITEFIFOPTHREHOLD?APP
0076DBH   0076E0H   000006H   BYTE   UNIT     CODE           ?PR?ACTIVEMESSAGEADDRESSC__ACTIVEMESSAGEADDRESS__CHANGED?A
                                                             -PP
0076E1H   0076E6H   000006H   BYTE   UNIT     CODE           ?PR?ACTIVEMESSAGEADDRESSC__ACTIVEMESSAGEADDRESS__AMGROUP?A
                                                             -PP
0076E7H   0076ECH   000006H   BYTE   UNIT     CODE           ?PR?RFCONFIGP__RFCONFIG__GETCHANNEL?APP
0076EDH   0076F2H   000006H   BYTE   UNIT     CODE           ?PR?_VIRTUALIZETIMERC__0__TIMER__DEFAULT__FIRED?APP
0076F3H   0076F8H   000006H   BYTE   UNIT     CODE           ?PR?_MCUSLEEPP__MODULERESET__DEFAULT__RESET?APP
0076F9H   0076FEH   000006H   BYTE   UNIT     CODE           ?PR?TRANSFORMCOUNTERC__0__COUNTER__OVERFLOW?APP
0076FFH   007704H   000006H   BYTE   UNIT     CODE           ?PR?HPLCC2530TIMER1P__0__COUNTER__OVERFLOW?APP
007705H   00770AH   000006H   BYTE   UNIT     CODE           ?PR?_TOPTASKMGRP__TOPTASKHANDLER__DEFAULT__HANDLER?APP
00770BH   007710H   000006H   BYTE   UNIT     CODE           ?PR?PLATFORMINTERRUPTC__INT_P0__DEFAULT__FIRED?APP
007711H   007716H   000006H   BYTE   UNIT     CODE           ?PR?PLATFORMINTERRUPTC__INT_P1__DEFAULT__FIRED?APP
007717H   00771CH   000006H   BYTE   UNIT     CODE           ?PR?_SCHEDULERBASICP__TASKBASIC__DEFAULT__RUNTASK?APP
00771DH   007721H   000005H   BYTE   UNIT     CODE           ?PR?REALMAINP__FAKETIMER__FIRED?APP
007722H   007726H   000005H   BYTE   UNIT     CODE           ?PR?ALARMTOTIMERC__0__ALARM__FIRED?APP
007727H   00772AH   000004H   BYTE   UNIT     CODE           ?PR?ACTIVEMESSAGEADDRESSC__ACTIVEMESSAGEADDRESS__AMADDRESS
                                                             -?APP
00772BH   00772EH   000004H   BYTE   UNIT     CODE           ?PR?HPLCC2530TIMER1P__0__ALARM0__STOP?APP
00772FH   007732H   000004H   BYTE   UNIT     CODE           ?PR?HPLCC2530TIMER1P__0__ALARM1__STOP?APP
007733H   007735H   000003H   BYTE   UNIT     CODE           ?PR?_AMRESOURCEP__3__AMRESOURCE__SENDDONE?APP
007736H   007738H   000003H   BYTE   UNIT     CODE           ?PR?_AMRESOURCEP__2__AMRESOURCE__SENDDONE?APP
007739H   00773BH   000003H   BYTE   UNIT     CODE           ?PR?_AMRESOURCEP__1__AMRESOURCE__SENDDONE?APP
00773CH   00773EH   000003H   BYTE   UNIT     CODE           ?PR?_AMRESOURCEP__0__AMRESOURCE__SENDDONE?APP
00773FH   007741H   000003H   BYTE   UNIT     CODE           ?PR?TRANSFORMALARMC__0__ALARM__STOP?APP
007742H   007744H   000003H   BYTE   UNIT     CODE           ?PR?ALARMTOTIMERC__0__TIMER__STOP?APP
007745H   007747H   000003H   BYTE   UNIT     CODE           ?PR?ATOSNETSTDP__REBOOTTIMER__FIRED?APP
007748H   00774AH   000003H   BYTE   UNIT     CODE           ?PR?HALFLASHP__INIT__INIT?APP
00774BH   00774DH   000003H   BYTE   UNIT     CODE           ?PR?RFCONFIGP__RFCONFIG__FLUSH?APP
00774EH   007750H   000003H   BYTE   UNIT     CODE           ?PR?TRANSFORMALARMC__1__ALARM__STOP?APP
007751H   007753H   000003H   BYTE   UNIT     CODE           ?PR?__NESC_ENABLE_INTERRUPT?APP
007754H   007756H   000003H   BYTE   UNIT     CODE           ?PR?RFPACKETP__PACKET__MAXPAYLOADLENGTH?APP
007757H   007759H   000003H   BYTE   UNIT     CODE           ?PR?HALCC2530UART0ISRP__0__TXTASKHANDLER__HANDLER?APP
00775AH   00775CH   000003H   BYTE   UNIT     CODE           ?PR?RFPACKETP__PACKETEX__PACKETHEADERSIZE?APP
00775DH   00775FH   000003H   BYTE   UNIT     CODE           ?PR?RFRELIABLEMACPACKETP__PACKETEX__PACKETHEADERSIZE?APP
007760H   007762H   000003H   BYTE   UNIT     CODE           ?PR?PLATFORMINTERRUPTC__INT_UART1_RX__DEFAULT__FIRED?APP
007763H   007765H   000003H   BYTE   UNIT     CODE           ?PR?PLATFORMINTERRUPTC__INT_UART1_TX__DEFAULT__FIRED?APP
007766H   007768H   000003H   BYTE   UNIT     CODE           ?PR?PLATFORMINTERRUPTC__INT_ST__DEFAULT__FIRED?APP
007769H   00776BH   000003H   BYTE   UNIT     CODE           ?PR?__NESC_DISABLE_INTERRUPT?APP
00776CH   00776CH   000001H   BYTE   UNIT     CODE           ?PR?FLASHIEEEP__ACTIVEMESSAGEADDRESS__CHANGED?APP
00776DH   00776DH   000001H   BYTE   UNIT     CODE           ?PR?REALMAINP__FAKETASK__RUNTASK?APP
00776EH   00776EH   000001H   BYTE   UNIT     CODE           ?PR?RFPOWERP__RFPOWER__OSCON?APP
00776FH   00776FH   000001H   BYTE   UNIT     CODE           ?PR?RFPOWERP__RFPOWER__RESET?APP
007770H   007770H   000001H   BYTE   UNIT     CODE           ?PR?MCUSLEEPP__MCUSLEEPCONTROL__DEFAULT__AFTERWAKEUP?APP
007771H   007771H   000001H   BYTE   UNIT     CODE           ?PR?MCUSLEEPP__MCUSLEEPCONTROL__DEFAULT__BEFORESLEEP?APP
007772H   007772H   000001H   BYTE   UNIT     CODE           ?PR?COUNTERTOLOCALTIMEC__0__COUNTER__OVERFLOW?APP
LX51 LINKER/LOCATER V4.41                                                             05/23/2018  09:43:07  PAGE 9


007773H   007773H   000001H   BYTE   UNIT     CODE           ?PR?TRANSFORMALARMC__0__COUNTER__OVERFLOW?APP
007774H   007774H   000001H   BYTE   UNIT     CODE           ?PR?TRANSFORMALARMC__1__COUNTER__OVERFLOW?APP
007775H   007775H   000001H   BYTE   UNIT     CODE           ?PR?HPLCC2530TIMER1P__0__ALARM2__DEFAULT__FIRED?APP
007776H   007776H   000001H   BYTE   UNIT     CODE           ?PR?HALCC2530UART0ISRP__0__INT_UART0_TX__FIRED?APP

* * * * * * * * * * *  X D A T A   M E M O R Y  * * * * * * * * * * * * *
000001H   000730H   000730H   BYTE   UNIT     XDATA          ?XD?APP
*** OVERLAP ***
000001H   ---       000000H   BYTE   UNIT     XDATA          ABOOT_RAM
000731H   0007EEH   0000BEH   BYTE   UNIT     XDATA          _XDATA_GROUP_
0007EFH   00087FH   000091H   BYTE   UNIT     XDATA          ?XD?FLASHREAD
000880H   000888H   000009H   BYTE   UNIT     XDATA          ?XD?_OLEDP__DO_DRAW_CHAR?C_ASM
000889H   000889H   000001H   BYTE   UNIT     XDATA          ?XD?_OLEDP__WRITE_BUF?C_ASM
00088AH   00088AH   000001H   BYTE   UNIT     XDATA          ?XD?_OLEDP__WRITE_CMD?C_ASM



OVERLAY MAP OF MODULE:   APP (?C_STARTUP)


FUNCTION/MODULE                                BIT_GROUP   DATA_GROUP   XDATA_GROUP
--> CALLED FUNCTION/MODULE                    START  STOP  START  STOP  START  STOP
===================================================================================
?C_C51STARTUP                                 ----- -----  ----- -----  ----- -----
  +--> ?PR?MAIN?APP
  +--> ?C_INITSEG

MAIN/APP                                      ----- -----  ----- -----  0731H 0731H
  +--> ?PR?__NESC_ATOMIC_START?APP
  +--> ?PR?SCHEDULERBASICP__SCHEDULER__INIT?APP
  +--> ?PR?PLATFORMP__INIT__INIT?APP
  +--> ?PR?SCHEDULERBASICP__SCHEDULER__RUNNE...
  +--> ?PR?REALMAINP__SOFTWAREINIT__INIT?APP
  +--> ?PR?___NESC_ATOMIC_END?APP
  +--> ?PR?__NESC_ENABLE_INTERRUPT?APP
  +--> ?PR?DIGBASEP__BOOT__BOOTED?APP
  +--> ?PR?SCHEDULERBASICP__SCHEDULER__TASKL...

__NESC_ATOMIC_START/APP                       ----- -----  ----- -----  ----- -----

SCHEDULERBASICP__SCHEDULER__INIT/APP          ----- -----  ----- -----  ----- -----

PLATFORMP__INIT__INIT/APP                     ----- -----  ----- -----  ----- -----
  +--> ?PR?_PLATFORMP__CLOCKSELECT32K?APP
  +--> ?PR?_PLATFORMP__CLOCKSETMAINSRC?APP
  +--> ?PR?ATOS_DEBUG_UART_INIT?APP
  +--> ?PR?FLASHIEEEP__INIT__INIT?APP

_PLATFORMP__CLOCKSELECT32K/APP                ----- -----  ----- -----  0732H 0733H

_PLATFORMP__CLOCKSETMAINSRC/APP               ----- -----  ----- -----  0732H 0733H

ATOS_DEBUG_UART_INIT/APP                      ----- -----  ----- -----  ----- -----
  +--> ?PR?_UART0INIT?APP

_UART0INIT/APP                                ----- -----  ----- -----  0733H 0736H
  +--> ?PR?_UART0PINMAP?APP
  +--> ?PR?_UART0SETBAUD?APP
  +--> ?PR?UART0SETMODE?APP

_UART0PINMAP/APP                              ----- -----  ----- -----  0737H 0737H

_UART0SETBAUD/APP                             ----- -----  ----- -----  0737H 073AH

UART0SETMODE/APP                              ----- -----  ----- -----  ----- -----
LX51 LINKER/LOCATER V4.41                                                             05/23/2018  09:43:07  PAGE 10



FLASHIEEEP__INIT__INIT/APP                    ----- -----  ----- -----  0732H 0732H
  +--> ?PR?FLASHIEEEP__READFROMFLASH?APP
  +--> ?PR?FLASHIEEEP__FLASHIEEE__WRITETOREG...
  +--> ?PR?FLASHIEEEP__FLASHIEEE__WRITETOAM?APP

FLASHIEEEP__READFROMFLASH/APP                 ----- -----  ----- -----  ----- -----
  +--> ?PR?_HALFLASHP__HALFLASH__READ?APP
  +--> ?PR?FLASHIEEEP__IEEEPROTECT?APP

_HALFLASHP__HALFLASH__READ/APP                ----- -----  ----- -----  0784H 078CH
  +--> ?PR?_HALFLASHP__HALCC2530FLASHREAD?FL...

_HALFLASHP__HALCC2530FLASHREAD/FLASHREAD      ----- -----  ----- -----  078DH 0797H

FLASHIEEEP__IEEEPROTECT/APP                   ----- -----  ----- -----  0777H 0783H
  +--> ?PR?_HALFLASHP__HALFLASH__READ?APP
  +--> ?PR?_HALFLASHP__HALFLASH__ERASE?APP
  +--> ?PR?_HALFLASHP__HALFLASH__WRITE?APP

_HALFLASHP__HALFLASH__ERASE/APP               ----- -----  ----- -----  0784H 0786H

_HALFLASHP__HALFLASH__WRITE/APP               ----- -----  ----- -----  0784H 078CH
  +--> ?PR?_HALFLASHP__HALCC2530FLASHWRITE?F...

_HALFLASHP__HALCC2530FLASHWRITE/FLASH...      ----- -----  ----- -----  078DH 0798H

FLASHIEEEP__FLASHIEEE__WRITETOREGISTE...      ----- -----  ----- -----  0777H 0778H
  +--> ?PR?FLASHIEEEP__FLASHIEEE__GETPANID?APP
  +--> ?PR?FLASHIEEEP__FLASHIEEE__GETSHORTAD...

FLASHIEEEP__FLASHIEEE__GETPANID/APP           ----- -----  ----- -----  ----- -----

FLASHIEEEP__FLASHIEEE__GETSHORTADDRES...      ----- -----  ----- -----  ----- -----

FLASHIEEEP__FLASHIEEE__WRITETOAM/APP          ----- -----  ----- -----  ----- -----
  +--> ?PR?FLASHIEEEP__FLASHIEEE__GETPANID?APP
  +--> ?PR?FLASHIEEEP__FLASHIEEE__GETSHORTAD...
  +--> ?PR?_ACTIVEMESSAGEADDRESSC__ACTIVEMES...

_ACTIVEMESSAGEADDRESSC__ACTIVEMESSAGE...      ----- -----  ----- -----  ----- -----
  +--> ?PR?ACTIVEMESSAGEADDRESSC__ACTIVEMESS...

ACTIVEMESSAGEADDRESSC__ACTIVEMESSAGEA...      ----- -----  ----- -----  ----- -----
  +--> ?PR?RFPACKETP__ACTIVEMESSAGEADDRESS__...
  +--> ?PR?FLASHIEEEP__ACTIVEMESSAGEADDRESS_...

RFPACKETP__ACTIVEMESSAGEADDRESS__CHAN...      ----- -----  ----- -----  ----- -----

FLASHIEEEP__ACTIVEMESSAGEADDRESS__CHA...      ----- -----  ----- -----  ----- -----

SCHEDULERBASICP__SCHEDULER__RUNNEXTTA...      ----- -----  ----- -----  0732H 0732H
  +--> ?PR?SCHEDULERBASICP__POPTASK?APP
  +--> ?PR?_SCHEDULERBASICP__TASKBASIC__RUNT...

SCHEDULERBASICP__POPTASK/APP                  ----- -----  ----- -----  0734H 0734H

_SCHEDULERBASICP__TASKBASIC__RUNTASK/APP      ----- -----  ----- -----  0734H 0734H
  +--> ?PR?DIGBASEP__SHOWMENU__RUNTASK?APP
  +--> ?PR?DIGBASEP__SENDDATA__RUNTASK?APP
  +--> ?PR?REALMAINP__FAKETASK__RUNTASK?APP
  +--> ?PR?ALARMTOTIMERC__0__FIREDTASK__RUNT...
  +--> ?PR?VIRTUALIZETIMERC__0__UPDATEFROMTI...
  +--> ?PR?RFRELIABLEMACRETRYSENDP__0__RESEN...
  +--> ?PR?RFRELIABLEMACSENDP__0__SIGNALDONE...
LX51 LINKER/LOCATER V4.41                                                             05/23/2018  09:43:07  PAGE 11


  +--> ?PR?RFMACBASESENDP__0__SENDNEXT__RUNT...
  +--> ?PR?RFMACBASECSMAP__SIGNALDONETASK__R...
  +--> ?PR?RFMACBASECSMAP__DOGO__RUNTASK?APP
  +--> ?PR?RFRELIABLEMACRECEIVEP__0__SENDACK...
  +--> ?PR?ATOSNETSTDP__REBOOTTASK__RUNTASK?APP
  +--> ?PR?ATOSNETSTDP__NODESTATUSUPTASK__RU...
  +--> ?PR?ATOSNETSTDP__SENDDONECHECK__RUNTA...
  +--> ?PR?RFRELIABLEMACRETRYSENDP__1__RESEN...
  +--> ?PR?RFRELIABLEMACSENDP__1__SIGNALDONE...
  +--> ?PR?RFRELIABLEMACRECEIVEP__1__SENDACK...
  +--> ?PR?_SCHEDULERBASICP__TASKBASIC__DEFA...

DIGBASEP__SHOWMENU__RUNTASK/APP               ----- -----  ----- -----  0735H 0735H
  +--> ?PR?__NESC_ATOMIC_START?APP
  +--> ?CO?APP
  +--> ?PR?PRINTF?PRINTF
  +--> ?PR?___NESC_ATOMIC_END?APP
  +--> ?PR?ATOS_DEBUG_UART_PRINT?APP
  +--> ?PR?RFPACKETP__AMPACKET__ADDRESS?APP

?CO?APP                                       ----- -----  ----- -----  ----- -----

PRINTF/PRINTF                                 20H.0 21H.0  0008H 000CH  07BAH 07E9H
  +--> ?PR?PUTCHAR?PUTCHAR

PUTCHAR/PUTCHAR                               ----- -----  ----- -----  ----- -----

___NESC_ATOMIC_END/APP                        ----- -----  ----- -----  ----- -----

ATOS_DEBUG_UART_PRINT/APP                     ----- -----  ----- -----  07BAH 07BBH
  +--> ?PR?___NESC_ATOMIC_END?APP
  +--> ?PR?_ATOS_DEBUG_UART_PUTC?APP

_ATOS_DEBUG_UART_PUTC/APP                     ----- -----  ----- -----  07BCH 07BCH
  +--> ?PR?_UART0PUTCHAR?APP

_UART0PUTCHAR/APP                             ----- -----  ----- -----  ----- -----

RFPACKETP__AMPACKET__ADDRESS/APP              ----- -----  ----- -----  07CFH 07CFH
  +--> ?PR?__NESC_ATOMIC_START?APP
  +--> ?PR?ACTIVEMESSAGEADDRESSC__ACTIVEMESS...
  +--> ?PR?WATCHDOGP__WATCHDOG__RESETCPU?APP
  +--> ?PR?___NESC_ATOMIC_END?APP

ACTIVEMESSAGEADDRESSC__ACTIVEMESSAGEA...      ----- -----  ----- -----  ----- -----
  +--> ?PR?ACTIVEMESSAGEADDRESSC__AMADDRESS?APP

ACTIVEMESSAGEADDRESSC__AMADDRESS/APP          ----- -----  ----- -----  07D0H 07D0H
  +--> ?PR?__NESC_ATOMIC_START?APP
  +--> ?PR?___NESC_ATOMIC_END?APP

WATCHDOGP__WATCHDOG__RESETCPU/APP             ----- -----  ----- -----  07D0H 07D3H

DIGBASEP__SENDDATA__RUNTASK/APP               ----- -----  ----- -----  0735H 073DH
  +--> ?PR?_RFRELIABLEMACPACKETP__PACKET__GE...
  +--> ?PR?RFPACKETP__AMPACKET__ADDRESS?APP
  +--> ?PR?DIGBASEP__GETDESTADDRESS?APP
  +--> ?PR?__NESC_ATOMIC_START?APP
  +--> ?CO?APP
  +--> ?PR?PRINTF?PRINTF
  +--> ?PR?ATOS_DEBUG_UART_PRINT?APP
  +--> ?PR?_RFRELIABLEMACRETRYSENDP__0__AMSE...
  +--> ?PR?_SCHEDULERBASICP__TASKBASIC__POST...

_RFRELIABLEMACPACKETP__PACKET__GETPAY...      ----- -----  ----- -----  0740H 0745H
LX51 LINKER/LOCATER V4.41                                                             05/23/2018  09:43:07  PAGE 12


  +--> ?PR?_RFRELIABLEMACPACKETP__PACKET__PA...
  +--> ?PR?_RFPACKETP__PACKET__GETPAYLOAD?APP

_RFRELIABLEMACPACKETP__PACKET__PAYLOA...      ----- -----  ----- -----  ----- -----
  +--> ?PR?_RFPACKETP__PACKET__PAYLOADLENGTH...

_RFPACKETP__PACKET__PAYLOADLENGTH/APP         ----- -----  ----- -----  ----- -----
  +--> ?PR?___NESC_NTOH_LEUINT8?APP

___NESC_NTOH_LEUINT8/APP                      ----- -----  ----- -----  ----- -----

_RFPACKETP__PACKET__GETPAYLOAD/APP            ----- -----  ----- -----  07B4H 07B9H
  +--> ?PR?_RFPACKETP__PACKET__PAYLOADLENGTH...

DIGBASEP__GETDESTADDRESS/APP                  ----- -----  ----- -----  073EH 073EH

_RFRELIABLEMACRETRYSENDP__0__AMSEND__...      ----- -----  ----- -----  073EH 074BH
  +--> ?PR?__NESC_ATOMIC_START?APP
  +--> ?PR?_RFRELIABLEMACPACKETP__PACKETEX__...
  +--> ?PR?___NESC_HTON_INT8?APP
  +--> ?PR?_RFPACKETP__AMPACKET__SETDESTINAT...
  +--> ?PR?_RFRELIABLEMACPACKETP__PACKET__SE...
  +--> ?PR?_RFRELIABLEMACRETRYSENDP__0__DOSE...
  +--> ?PR?___NESC_ATOMIC_END?APP

_RFRELIABLEMACPACKETP__PACKETEX__GETP...      ----- -----  ----- -----  ----- -----
  +--> ?PR?_RFPACKETP__PACKET__GETPAYLOAD?APP

___NESC_HTON_INT8/APP                         ----- -----  ----- -----  ----- -----
  +--> ?PR?___NESC_HTON_UINT8?APP

___NESC_HTON_UINT8/APP                        ----- -----  ----- -----  ----- -----

_RFPACKETP__AMPACKET__SETDESTINATION/APP      ----- -----  ----- -----  ----- -----
  +--> ?PR?___NESC_HTON_LEUINT16?APP

___NESC_HTON_LEUINT16/APP                     ----- -----  ----- -----  ----- -----

_RFRELIABLEMACPACKETP__PACKET__SETPAY...      ----- -----  ----- -----  ----- -----
  +--> ?PR?_RFPACKETP__PACKET__SETPAYLOADLEN...

_RFPACKETP__PACKET__SETPAYLOADLENGTH/APP      ----- -----  ----- -----  ----- -----
  +--> ?PR?___NESC_HTON_LEUINT8?APP

___NESC_HTON_LEUINT8/APP                      ----- -----  ----- -----  ----- -----

_RFRELIABLEMACRETRYSENDP__0__DOSEND/APP       ----- -----  ----- -----  074CH 074EH
  +--> ?PR?_RFPACKETP__AMPACKET__DESTINATION...
  +--> ?PR?_RFRELIABLEMACPACKETP__PACKET__PA...
  +--> ?PR?_RFRELIABLEMACSENDP__0__AMSEND__S...

_RFPACKETP__AMPACKET__DESTINATION/APP         ----- -----  ----- -----  ----- -----
  +--> ?PR?___NESC_NTOH_LEUINT16?APP

___NESC_NTOH_LEUINT16/APP                     ----- -----  ----- -----  ----- -----

_RFRELIABLEMACSENDP__0__AMSEND__SEND/APP      ----- -----  ----- -----  074FH 075CH
  +--> ?PR?_RFRELIABLEMACPACKETP__PACKETEX__...
  +--> ?PR?___NESC_HTON_INT8?APP
  +--> ?PR?_RFPACKETP__PACKET__PAYLOADLENGTH...
  +--> ?PR?_AMRESOURCEP__0__AMSEND__SEND?APP
  +--> ?PR?_VIRTUALIZETIMERC__0__TIMER__STAR...

_AMRESOURCEP__0__AMSEND__SEND/APP             ----- -----  ----- -----  075DH 0762H
  +--> ?PR?___NESC_HTON_UINT8?APP
LX51 LINKER/LOCATER V4.41                                                             05/23/2018  09:43:07  PAGE 13


  +--> ?PR?___NESC_HTON_LEUINT8?APP
  +--> ?PR?_AMRESOURCECENTERP__AMRESOURCE__S...

_AMRESOURCECENTERP__AMRESOURCE__SEND/APP      ----- -----  ----- -----  07BAH 07CEH
  +--> ?PR?__NESC_ATOMIC_START?APP
  +--> ?PR?_RFPACKETP__PACKET__SETPAYLOADLEN...
  +--> ?PR?___NESC_HTON_LEUINT16?APP
  +--> ?PR?___NESC_NTOH_LEUINT16?APP
  +--> ?PR?RFPACKETP__AMPACKET__LOCALGROUP?APP
  +--> ?PR?_RFPACKETP__AMPACKET__SETGROUP?APP
  +--> ?PR?_RFPACKETP__AMPACKET__SETDESTINAT...
  +--> ?PR?RFPACKETP__AMPACKET__ADDRESS?APP
  +--> ?PR?_RFPACKETP__AMPACKET__SETSOURCE?APP
  +--> ?PR?___NESC_HTON_INT8?APP
  +--> ?PR?___NESC_HTON_UINT8?APP
  +--> ?PR?___NESC_NTOH_LEUINT8?APP
  +--> ?PR?_RFMACBASESENDP__0__CORESEND__SEN...
  +--> ?PR?___NESC_ATOMIC_END?APP

RFPACKETP__AMPACKET__LOCALGROUP/APP           ----- -----  ----- -----  ----- -----
  +--> ?PR?ACTIVEMESSAGEADDRESSC__ACTIVEMESS...
  +--> ?PR?WATCHDOGP__WATCHDOG__RESETCPU?APP

ACTIVEMESSAGEADDRESSC__ACTIVEMESSAGEA...      ----- -----  ----- -----  ----- -----

_RFPACKETP__AMPACKET__SETGROUP/APP            ----- -----  ----- -----  ----- -----
  +--> ?PR?___NESC_HTON_LEUINT16?APP

_RFPACKETP__AMPACKET__SETSOURCE/APP           ----- -----  ----- -----  ----- -----
  +--> ?PR?___NESC_HTON_LEUINT16?APP

_RFMACBASESENDP__0__CORESEND__SEND/APP        ----- -----  ----- -----  07CFH 07D3H
  +--> ?PR?___NESC_HTON_LEUINT8?APP
  +--> ?PR?_RFMACBASESENDP__0__ENQUEUEMESSAG...

_RFMACBASESENDP__0__ENQUEUEMESSAGE/APP        ----- -----  ----- -----  07D4H 07D7H
  +--> ?PR?___NESC_NTOH_UINT8?APP
  +--> ?PR?_RFMACBASESENDP__0__INDEXOFMESSAG...
  +--> ?PR?_QUEUEEXC__0__QUEUEEX__ENQUEUE?APP
  +--> ?PR?_SCHEDULERBASICP__TASKBASIC__POST...

___NESC_NTOH_UINT8/APP                        ----- -----  ----- -----  ----- -----

_RFMACBASESENDP__0__INDEXOFMESSAGE/APP        ----- -----  ----- -----  07D8H 07DFH
  +--> ?PR?QUEUEEXC__0__QUEUEEX__SIZE?APP
  +--> ?PR?_QUEUEEXC__0__QUEUEEX__ELEMENT?APP
  +--> ?PR?___NESC_NTOH_UINT8?APP

QUEUEEXC__0__QUEUEEX__SIZE/APP                ----- -----  ----- -----  07E0H 07E0H

_QUEUEEXC__0__QUEUEEX__ELEMENT/APP            ----- -----  ----- -----  07E0H 07E2H

_QUEUEEXC__0__QUEUEEX__ENQUEUE/APP            ----- -----  ----- -----  07D8H 07D8H
  +--> ?PR?QUEUEEXC__0__QUEUEEX__MAXSIZE?APP
  +--> ?PR?QUEUEEXC__0__QUEUEEX__SIZE?APP

QUEUEEXC__0__QUEUEEX__MAXSIZE/APP             ----- -----  ----- -----  07D9H 07D9H

_SCHEDULERBASICP__TASKBASIC__POSTTASK...      ----- -----  ----- -----  07D8H 07D9H
  +--> ?PR?__NESC_ATOMIC_START?APP
  +--> ?PR?_SCHEDULERBASICP__PUSHTASK?APP
  +--> ?PR?___NESC_ATOMIC_END?APP

_SCHEDULERBASICP__PUSHTASK/APP                ----- -----  ----- -----  07DAH 07DBH
  +--> ?PR?_SCHEDULERBASICP__ISWAITING?APP
LX51 LINKER/LOCATER V4.41                                                             05/23/2018  09:43:07  PAGE 14



_SCHEDULERBASICP__ISWAITING/APP               ----- -----  ----- -----  ----- -----

_VIRTUALIZETIMERC__0__TIMER__STARTONE...      ----- -----  ----- -----  07B4H 07B9H
  +--> ?PR?__NESC_ATOMIC_START?APP
  +--> ?CO?APP
  +--> ?PR?PRINTF?PRINTF
  +--> ?PR?ATOS_DEBUG_UART_PRINT?APP
  +--> ?PR?ALARMTOTIMERC__0__TIMER__GETNOW?APP
  +--> ?PR?_VIRTUALIZETIMERC__0__STARTTIMER?APP
  +--> ?PR?___NESC_ATOMIC_END?APP

ALARMTOTIMERC__0__TIMER__GETNOW/APP           ----- -----  ----- -----  07BAH 07BDH
  +--> ?PR?TRANSFORMALARMC__0__ALARM__GETNOW...

TRANSFORMALARMC__0__ALARM__GETNOW/APP         ----- -----  ----- -----  07BEH 07C1H
  +--> ?PR?TRANSFORMCOUNTERC__0__COUNTER__GE...

TRANSFORMCOUNTERC__0__COUNTER__GET/APP        ----- -----  ----- -----  07C2H 07D3H
  +--> ?PR?HPLCC2530TIMER1P__0__COUNTER__GET...
  +--> ?PR?HPLCC2530TIMER1P__0__COUNTER__ISO...

HPLCC2530TIMER1P__0__COUNTER__GET/APP         ----- -----  ----- -----  07D4H 07D7H

HPLCC2530TIMER1P__0__COUNTER__ISOVERF...      ----- -----  ----- -----  07D4H 07D4H

_VIRTUALIZETIMERC__0__STARTTIMER/APP          ----- -----  ----- -----  07BAH 07C6H
  +--> ?PR?_SCHEDULERBASICP__TASKBASIC__POST...

REALMAINP__FAKETASK__RUNTASK/APP              ----- -----  ----- -----  ----- -----

ALARMTOTIMERC__0__FIREDTASK__RUNTASK/APP      ----- -----  ----- -----  0735H 0735H
  +--> ?PR?__NESC_ATOMIC_START?APP
  +--> ?PR?TRANSFORMALARMC__0__ALARM__GETALA...
  +--> ?PR?_ALARMTOTIMERC__0__START?APP
  +--> ?PR?VIRTUALIZETIMERC__0__TIMERFROM__F...
  +--> ?PR?___NESC_ATOMIC_END?APP

TRANSFORMALARMC__0__ALARM__GETALARM/APP       ----- -----  ----- -----  0736H 0739H

_ALARMTOTIMERC__0__START/APP                  ----- -----  ----- -----  0753H 075BH
  +--> ?PR?_TRANSFORMALARMC__0__ALARM__START...

_TRANSFORMALARMC__0__ALARM__STARTAT/APP       ----- -----  ----- -----  075CH 0763H
  +--> ?PR?TRANSFORMALARMC__0__SET_ALARM?APP

TRANSFORMALARMC__0__SET_ALARM/APP             ----- -----  ----- -----  0764H 076FH
  +--> ?PR?TRANSFORMCOUNTERC__0__COUNTER__GE...
  +--> ?PR?_HPLCC2530TIMER1P__0__ALARM0__STA...

_HPLCC2530TIMER1P__0__ALARM0__STARTAT...      ----- -----  ----- -----  0770H 0777H
  +--> ?CO?APP
  +--> ?PR?PRINTF?PRINTF
  +--> ?PR?ATOS_DEBUG_UART_PRINT?APP

VIRTUALIZETIMERC__0__TIMERFROM__FIRED...      ----- -----  ----- -----  ----- -----
  +--> ?CO?APP
  +--> ?PR?PRINTF?PRINTF
  +--> ?PR?ATOS_DEBUG_UART_PRINT?APP
  +--> ?PR?ALARMTOTIMERC__0__TIMER__GETNOW?APP
  +--> ?PR?_VIRTUALIZETIMERC__0__FIRETIMERS?APP

_VIRTUALIZETIMERC__0__FIRETIMERS/APP          ----- -----  ----- -----  074BH 0756H
  +--> ?CO?APP
  +--> ?PR?PRINTF?PRINTF
LX51 LINKER/LOCATER V4.41                                                             05/23/2018  09:43:07  PAGE 15


  +--> ?PR?ATOS_DEBUG_UART_PRINT?APP
  +--> ?PR?_VIRTUALIZETIMERC__0__TIMER__FIRE...
  +--> ?PR?_SCHEDULERBASICP__TASKBASIC__POST...

_VIRTUALIZETIMERC__0__TIMER__FIRED/APP        ----- -----  ----- -----  0757H 0757H
  +--> ?PR?REALMAINP__FAKETIMER__FIRED?APP
  +--> ?PR?RFRELIABLEMACSENDP__0__ACKTIMER__...
  +--> ?PR?RFRELIABLEMACSENDP__0__TIMEOUTTIM...
  +--> ?PR?RFRELIABLEMACSENDP__1__ACKTIMER__...
  +--> ?PR?RFRELIABLEMACSENDP__1__TIMEOUTTIM...
  +--> ?PR?ATOSNETSTDP__REBOOTTIMER__FIRED?APP
  +--> ?PR?_VIRTUALIZETIMERC__0__TIMER__DEFA...

REALMAINP__FAKETIMER__FIRED/APP               ----- -----  ----- -----  ----- -----
  +--> ?PR?_SCHEDULERBASICP__TASKBASIC__POST...

RFRELIABLEMACSENDP__0__ACKTIMER__FIRE...      ----- -----  ----- -----  ----- -----
  +--> ?PR?_RFRELIABLEMACSENDP__0__SIGNALDON...

_RFRELIABLEMACSENDP__0__SIGNALDONE/APP        ----- -----  ----- -----  0769H 0769H
  +--> ?PR?__NESC_ATOMIC_START?APP
  +--> ?PR?___NESC_ATOMIC_END?APP
  +--> ?PR?_VIRTUALIZETIMERC__0__TIMER__STOP...
  +--> ?PR?_SCHEDULERBASICP__TASKBASIC__POST...

_VIRTUALIZETIMERC__0__TIMER__STOP/APP         ----- -----  ----- -----  ----- -----

RFRELIABLEMACSENDP__0__TIMEOUTTIMER__...      ----- -----  ----- -----  ----- -----
  +--> ?PR?_RFRELIABLEMACSENDP__0__SIGNALDON...

RFRELIABLEMACSENDP__1__ACKTIMER__FIRE...      ----- -----  ----- -----  ----- -----
  +--> ?PR?_RFRELIABLEMACSENDP__1__SIGNALDON...

_RFRELIABLEMACSENDP__1__SIGNALDONE/APP        ----- -----  ----- -----  0769H 0769H
  +--> ?PR?__NESC_ATOMIC_START?APP
  +--> ?PR?___NESC_ATOMIC_END?APP
  +--> ?PR?_VIRTUALIZETIMERC__0__TIMER__STOP...
  +--> ?PR?_SCHEDULERBASICP__TASKBASIC__POST...

RFRELIABLEMACSENDP__1__TIMEOUTTIMER__...      ----- -----  ----- -----  ----- -----
  +--> ?PR?_RFRELIABLEMACSENDP__1__SIGNALDON...

ATOSNETSTDP__REBOOTTIMER__FIRED/APP           ----- -----  ----- -----  ----- -----
  +--> ?PR?WATCHDOGP__WATCHDOG__RESETCPU?APP

_VIRTUALIZETIMERC__0__TIMER__DEFAULT_...      ----- -----  ----- -----  0758H 0758H

VIRTUALIZETIMERC__0__UPDATEFROMTIMER_...      ----- -----  ----- -----  0735H 074AH
  +--> ?PR?__NESC_ATOMIC_START?APP
  +--> ?PR?ALARMTOTIMERC__0__TIMER__GETNOW?APP
  +--> ?CO?APP
  +--> ?PR?PRINTF?PRINTF
  +--> ?PR?ATOS_DEBUG_UART_PRINT?APP
  +--> ?PR?ALARMTOTIMERC__0__TIMER__STOP?APP
  +--> ?PR?_VIRTUALIZETIMERC__0__FIRETIMERS?APP
  +--> ?PR?_ALARMTOTIMERC__0__TIMER__STARTON...
  +--> ?PR?___NESC_ATOMIC_END?APP

ALARMTOTIMERC__0__TIMER__STOP/APP             ----- -----  ----- -----  ----- -----
  +--> ?PR?TRANSFORMALARMC__0__ALARM__STOP?APP

TRANSFORMALARMC__0__ALARM__STOP/APP           ----- -----  ----- -----  ----- -----
  +--> ?PR?HPLCC2530TIMER1P__0__ALARM0__STOP...

HPLCC2530TIMER1P__0__ALARM0__STOP/APP         ----- -----  ----- -----  ----- -----
LX51 LINKER/LOCATER V4.41                                                             05/23/2018  09:43:07  PAGE 16



_ALARMTOTIMERC__0__TIMER__STARTONESHO...      ----- -----  ----- -----  074BH 0752H
  +--> ?PR?_ALARMTOTIMERC__0__START?APP

RFRELIABLEMACRETRYSENDP__0__RESENDTAS...      ----- -----  ----- -----  0735H 0735H
  +--> ?PR?__NESC_ATOMIC_START?APP
  +--> ?PR?_RFRELIABLEMACRETRYSENDP__0__DOSE...
  +--> ?PR?_SCHEDULERBASICP__TASKBASIC__POST...
  +--> ?PR?_RFRELIABLEMACRETRYSENDP__0__SIGN...
  +--> ?PR?___NESC_ATOMIC_END?APP

_RFRELIABLEMACRETRYSENDP__0__SIGNALDO...      ----- -----  ----- -----  0736H 0736H
  +--> ?PR?__NESC_ATOMIC_START?APP
  +--> ?PR?___NESC_ATOMIC_END?APP
  +--> ?PR?_DIGBASEP__AMSEND__SENDDONE?APP

_DIGBASEP__AMSEND__SENDDONE/APP               ----- -----  ----- -----  0737H 073AH
  +--> ?PR?__NESC_ATOMIC_START?APP
  +--> ?CO?APP
  +--> ?PR?PRINTF?PRINTF
  +--> ?PR?ATOS_DEBUG_UART_PRINT?APP
  +--> ?PR?_SCHEDULERBASICP__TASKBASIC__POST...

RFRELIABLEMACSENDP__0__SIGNALDONETASK...      ----- -----  ----- -----  0735H 0735H
  +--> ?PR?__NESC_ATOMIC_START?APP
  +--> ?PR?___NESC_ATOMIC_END?APP
  +--> ?PR?_RFRELIABLEMACRETRYSENDP__0__SUBA...

_RFRELIABLEMACRETRYSENDP__0__SUBAMSEN...      ----- -----  ----- -----  ----- -----
  +--> ?PR?_RFRELIABLEMACRETRYSENDP__0__SIGN...
  +--> ?PR?_SCHEDULERBASICP__TASKBASIC__POST...

RFMACBASESENDP__0__SENDNEXT__RUNTASK/APP      ----- -----  ----- -----  0735H 073BH
  +--> ?PR?__NESC_ATOMIC_START?APP
  +--> ?PR?QUEUEEXC__0__QUEUEEX__EMPTY?APP
  +--> ?PR?QUEUEEXC__0__QUEUEEX__DEQUEUE?APP
  +--> ?PR?_SCHEDULERBASICP__TASKBASIC__POST...
  +--> ?PR?___NESC_NTOH_LEUINT8?APP
  +--> ?PR?_RFMACBASECSMAP__CORESEND__SEND?APP
  +--> ?PR?_AMRESOURCECENTERP__CORESEND__SEN...
  +--> ?PR?___NESC_ATOMIC_END?APP

QUEUEEXC__0__QUEUEEX__EMPTY/APP               ----- -----  ----- -----  0742H 0742H

QUEUEEXC__0__QUEUEEX__DEQUEUE/APP             ----- -----  ----- -----  073CH 0741H
  +--> ?PR?QUEUEEXC__0__QUEUEEX__HEAD?APP
  +--> ?PR?QUEUEEXC__0__QUEUEEX__EMPTY?APP

QUEUEEXC__0__QUEUEEX__HEAD/APP                ----- -----  ----- -----  0742H 0744H

_RFMACBASECSMAP__CORESEND__SEND/APP           ----- -----  ----- -----  073CH 0746H
  +--> ?PR?___NESC_NTOH_LEUINT8?APP
  +--> ?PR?___NESC_HTON_LEUINT8?APP
  +--> ?PR?_RFHARDWARETXP__RFHARDWARETX__TXP...
  +--> ?PR?RFMACBASECSMAP__INITBACKOFFTIMER?APP
  +--> ?PR?_TRANSFORMALARMC__1__ALARM__START...

_RFHARDWARETXP__RFHARDWARETX__TXPREPA...      ----- -----  ----- -----  ----- -----
  +--> ?PR?_RFHARDWARETXP__WRITETXFIFO?APP

_RFHARDWARETXP__WRITETXFIFO/APP               ----- -----  ----- -----  0747H 0749H

RFMACBASECSMAP__INITBACKOFFTIMER/APP          ----- -----  ----- -----  ----- -----
  +--> ?PR?CC2530RANDOMLFSRP__RANDOM__RAND16...

LX51 LINKER/LOCATER V4.41                                                             05/23/2018  09:43:07  PAGE 17


CC2530RANDOMLFSRP__RANDOM__RAND16/APP         ----- -----  ----- -----  ----- -----

_TRANSFORMALARMC__1__ALARM__START/APP         ----- -----  ----- -----  0747H 074AH
  +--> ?PR?TRANSFORMALARMC__1__ALARM__GETNOW...
  +--> ?PR?_TRANSFORMALARMC__1__ALARM__START...

TRANSFORMALARMC__1__ALARM__GETNOW/APP         ----- -----  ----- -----  074BH 074EH
  +--> ?PR?TRANSFORMCOUNTERC__1__COUNTER__GE...

TRANSFORMCOUNTERC__1__COUNTER__GET/APP        ----- -----  ----- -----  075FH 076EH
  +--> ?PR?HPLCC2530TIMER1P__0__COUNTER__GET...
  +--> ?PR?HPLCC2530TIMER1P__0__COUNTER__ISO...

_TRANSFORMALARMC__1__ALARM__STARTAT/APP       ----- -----  ----- -----  074BH 0752H
  +--> ?PR?TRANSFORMALARMC__1__SET_ALARM?APP

TRANSFORMALARMC__1__SET_ALARM/APP             ----- -----  ----- -----  0753H 075EH
  +--> ?PR?TRANSFORMCOUNTERC__1__COUNTER__GE...
  +--> ?PR?_HPLCC2530TIMER1P__0__ALARM1__STA...

_HPLCC2530TIMER1P__0__ALARM1__STARTAT...      ----- -----  ----- -----  075FH 0766H

_AMRESOURCECENTERP__CORESEND__SENDDON...      ----- -----  ----- -----  073CH 073EH
  +--> ?PR?___NESC_NTOH_UINT8?APP
  +--> ?PR?_AMRESOURCECENTERP__AMRESOURCE__S...

_AMRESOURCECENTERP__AMRESOURCE__SENDD...      ----- -----  ----- -----  073FH 0743H
  +--> ?PR?_AMRESOURCEP__0__AMRESOURCE__SEND...
  +--> ?PR?_AMRESOURCEP__1__AMRESOURCE__SEND...
  +--> ?PR?_AMRESOURCEP__2__AMRESOURCE__SEND...
  +--> ?PR?_AMRESOURCEP__3__AMRESOURCE__SEND...
  +--> ?PR?_AMRESOURCECENTERP__AMRESOURCE__D...

_AMRESOURCEP__0__AMRESOURCE__SENDDONE...      ----- -----  ----- -----  ----- -----
  +--> ?PR?_RFRELIABLEMACSENDP__0__SUBAMSEND...

_RFRELIABLEMACSENDP__0__SUBAMSEND__SE...      ----- -----  ----- -----  0744H 074AH
  +--> ?PR?_RFRELIABLEMACPACKETP__PACKETEX__...
  +--> ?PR?_VIRTUALIZETIMERC__0__TIMER__STAR...
  +--> ?PR?_RFRELIABLEMACSENDP__0__SIGNALDON...

_AMRESOURCEP__1__AMRESOURCE__SENDDONE...      ----- -----  ----- -----  ----- -----
  +--> ?PR?_RFRELIABLEMACSENDP__1__SUBAMSEND...

_RFRELIABLEMACSENDP__1__SUBAMSEND__SE...      ----- -----  ----- -----  0744H 074AH
  +--> ?PR?_RFRELIABLEMACPACKETP__PACKETEX__...
  +--> ?PR?_VIRTUALIZETIMERC__0__TIMER__STAR...
  +--> ?PR?_RFRELIABLEMACSENDP__1__SIGNALDON...

_AMRESOURCEP__2__AMRESOURCE__SENDDONE...      ----- -----  ----- -----  ----- -----
  +--> ?PR?_RFRELIABLEMACRECEIVEP__1__AMSEND...

_RFRELIABLEMACRECEIVEP__1__AMSENDACK_...      ----- -----  ----- -----  0744H 0747H

_AMRESOURCEP__3__AMRESOURCE__SENDDONE...      ----- -----  ----- -----  ----- -----
  +--> ?PR?_RFRELIABLEMACRECEIVEP__0__AMSEND...

_RFRELIABLEMACRECEIVEP__0__AMSENDACK_...      ----- -----  ----- -----  0744H 0747H

_AMRESOURCECENTERP__AMRESOURCE__DEFAU...      ----- -----  ----- -----  0744H 0748H

RFMACBASECSMAP__SIGNALDONETASK__RUNTA...      ----- -----  ----- -----  ----- -----
  +--> ?PR?_RFMACBASESENDP__0__SUBCORESEND__...

_RFMACBASESENDP__0__SUBCORESEND__SEND...      ----- -----  ----- -----  0735H 0736H
LX51 LINKER/LOCATER V4.41                                                             05/23/2018  09:43:07  PAGE 18


  +--> ?PR?__NESC_ATOMIC_START?APP
  +--> ?PR?___NESC_ATOMIC_END?APP
  +--> ?PR?_AMRESOURCECENTERP__CORESEND__SEN...
  +--> ?CO?APP
  +--> ?PR?PRINTF?PRINTF
  +--> ?PR?ATOS_DEBUG_UART_PRINT?APP
  +--> ?PR?_SCHEDULERBASICP__TASKBASIC__POST...

RFMACBASECSMAP__DOGO__RUNTASK/APP             ----- -----  ----- -----  ----- -----
  +--> ?PR?RFHARDWARETXP__RFHARDWARETX__TXGO...
  +--> ?PR?_RFMACBASECSMAP__SIGNALDONE?APP

RFHARDWARETXP__RFHARDWARETX__TXGO/APP         ----- -----  ----- -----  0735H 0739H

_RFMACBASECSMAP__SIGNALDONE/APP               ----- -----  ----- -----  0739H 0739H
  +--> ?PR?__NESC_ATOMIC_START?APP
  +--> ?PR?___NESC_ATOMIC_END?APP
  +--> ?PR?_SCHEDULERBASICP__TASKBASIC__POST...

RFRELIABLEMACRECEIVEP__0__SENDACKTASK...      ----- -----  ----- -----  ----- -----
  +--> ?PR?_RFRELIABLEMACRECEIVEP__0__SENDAC...

_RFRELIABLEMACRECEIVEP__0__SENDACK/APP        ----- -----  ----- -----  0735H 0737H
  +--> ?PR?_RFPACKETP__AMPACKET__DESTINATION...
  +--> ?PR?_AMRESOURCEP__3__AMSEND__SEND?APP

_AMRESOURCEP__3__AMSEND__SEND/APP             ----- -----  ----- -----  0738H 073EH
  +--> ?PR?__NESC_ATOMIC_START?APP
  +--> ?PR?___NESC_HTON_UINT8?APP
  +--> ?PR?___NESC_HTON_LEUINT8?APP
  +--> ?PR?___NESC_ATOMIC_END?APP
  +--> ?PR?_AMRESOURCECENTERP__AMRESOURCE__S...

ATOSNETSTDP__REBOOTTASK__RUNTASK/APP          ----- -----  ----- -----  ----- -----
  +--> ?PR?_VIRTUALIZETIMERC__0__TIMER__STAR...

_VIRTUALIZETIMERC__0__TIMER__STARTPER...      ----- -----  ----- -----  0735H 073AH
  +--> ?PR?__NESC_ATOMIC_START?APP
  +--> ?CO?APP
  +--> ?PR?PRINTF?PRINTF
  +--> ?PR?ATOS_DEBUG_UART_PRINT?APP
  +--> ?PR?ALARMTOTIMERC__0__TIMER__GETNOW?APP
  +--> ?PR?_VIRTUALIZETIMERC__0__STARTTIMER?APP
  +--> ?PR?___NESC_ATOMIC_END?APP

ATOSNETSTDP__NODESTATUSUPTASK__RUNTAS...      ----- -----  ----- -----  ----- -----
  +--> ?PR?_ATOSNETSTDP__ATOSNETSTD__SENDNOD...

_ATOSNETSTDP__ATOSNETSTD__SENDNODESTA...      ----- -----  ----- -----  0735H 073BH
  +--> ?PR?__NESC_ATOMIC_START?APP
  +--> ?PR?_RFRELIABLEMACPACKETP__PACKET__GE...
  +--> ?PR?RFCONFIGP__RFCONFIG__GETCHANNEL?APP
  +--> ?PR?_FLASHIEEEP__FLASHIEEE__GETIEEE?APP
  +--> ?PR?_ATOSNETSTDP__ATOSNETSTD__DEFAULT...
  +--> ?PR?_RFRELIABLEMACRETRYSENDP__1__AMSE...
  +--> ?PR?___NESC_ATOMIC_END?APP

RFCONFIGP__RFCONFIG__GETCHANNEL/APP           ----- -----  ----- -----  ----- -----

_FLASHIEEEP__FLASHIEEE__GETIEEE/APP           ----- -----  ----- -----  073CH 073EH

_ATOSNETSTDP__ATOSNETSTD__DEFAULT__BE...      ----- -----  ----- -----  073CH 073EH

_RFRELIABLEMACRETRYSENDP__1__AMSEND__...      ----- -----  ----- -----  0795H 07A2H
  +--> ?PR?__NESC_ATOMIC_START?APP
LX51 LINKER/LOCATER V4.41                                                             05/23/2018  09:43:07  PAGE 19


  +--> ?PR?_RFRELIABLEMACPACKETP__PACKETEX__...
  +--> ?PR?___NESC_HTON_INT8?APP
  +--> ?PR?_RFPACKETP__AMPACKET__SETDESTINAT...
  +--> ?PR?_RFRELIABLEMACPACKETP__PACKET__SE...
  +--> ?PR?_RFRELIABLEMACRETRYSENDP__1__DOSE...
  +--> ?PR?___NESC_ATOMIC_END?APP

_RFRELIABLEMACRETRYSENDP__1__DOSEND/APP       ----- -----  ----- -----  07A3H 07A5H
  +--> ?PR?_RFPACKETP__AMPACKET__DESTINATION...
  +--> ?PR?_RFRELIABLEMACPACKETP__PACKET__PA...
  +--> ?PR?_RFRELIABLEMACSENDP__1__AMSEND__S...

_RFRELIABLEMACSENDP__1__AMSEND__SEND/APP      ----- -----  ----- -----  07A6H 07B3H
  +--> ?PR?_RFRELIABLEMACPACKETP__PACKETEX__...
  +--> ?PR?___NESC_HTON_INT8?APP
  +--> ?PR?_RFPACKETP__PACKET__PAYLOADLENGTH...
  +--> ?PR?_AMRESOURCEP__1__AMSEND__SEND?APP
  +--> ?PR?_VIRTUALIZETIMERC__0__TIMER__STAR...

_AMRESOURCEP__1__AMSEND__SEND/APP             ----- -----  ----- -----  07B4H 07B9H
  +--> ?PR?___NESC_HTON_UINT8?APP
  +--> ?PR?___NESC_HTON_LEUINT8?APP
  +--> ?PR?_AMRESOURCECENTERP__AMRESOURCE__S...

ATOSNETSTDP__SENDDONECHECK__RUNTASK/APP       ----- -----  ----- -----  0735H 073CH
  +--> ?PR?_RFRELIABLEMACPACKETP__PACKET__GE...
  +--> ?PR?RFPACKETP__AMPACKET__ADDRESS?APP
  +--> ?PR?_ATOSNETSTDP__INDEXOFTRACEITEM?APP
  +--> ?PR?_ATOSNETSTDP__TRACEEND?APP
  +--> ?PR?_ATOSNETSTDP__TRACEBACKWARD?APP

_ATOSNETSTDP__INDEXOFTRACEITEM/APP            ----- -----  ----- -----  0779H 077EH

_ATOSNETSTDP__TRACEEND/APP                    ----- -----  ----- -----  0783H 078AH
  +--> ?PR?_ATOSNETSTDP__TRACEBACKWARD?APP

_ATOSNETSTDP__TRACEBACKWARD/APP               ----- -----  ----- -----  078BH 0794H
  +--> ?PR?_ATOSNETSTDP__PACKET__PAYLOADLENG...
  +--> ?PR?_RFRELIABLEMACRETRYSENDP__1__AMSE...

_ATOSNETSTDP__PACKET__PAYLOADLENGTH/APP       ----- -----  ----- -----  ----- -----
  +--> ?PR?_RFRELIABLEMACPACKETP__PACKET__PA...

RFRELIABLEMACRETRYSENDP__1__RESENDTAS...      ----- -----  ----- -----  0735H 0735H
  +--> ?PR?__NESC_ATOMIC_START?APP
  +--> ?PR?_RFRELIABLEMACRETRYSENDP__1__DOSE...
  +--> ?PR?_SCHEDULERBASICP__TASKBASIC__POST...
  +--> ?PR?_RFRELIABLEMACRETRYSENDP__1__SIGN...
  +--> ?PR?___NESC_ATOMIC_END?APP

_RFRELIABLEMACRETRYSENDP__1__SIGNALDO...      ----- -----  ----- -----  0736H 0736H
  +--> ?PR?__NESC_ATOMIC_START?APP
  +--> ?PR?___NESC_ATOMIC_END?APP
  +--> ?PR?_ATOSNETSTDP__AMSEND__SENDDONE?APP

_ATOSNETSTDP__AMSEND__SENDDONE/APP            ----- -----  ----- -----  0737H 0739H
  +--> ?PR?_SCHEDULERBASICP__TASKBASIC__POST...

RFRELIABLEMACSENDP__1__SIGNALDONETASK...      ----- -----  ----- -----  0735H 0735H
  +--> ?PR?__NESC_ATOMIC_START?APP
  +--> ?PR?___NESC_ATOMIC_END?APP
  +--> ?PR?_RFRELIABLEMACRETRYSENDP__1__SUBA...

_RFRELIABLEMACRETRYSENDP__1__SUBAMSEN...      ----- -----  ----- -----  ----- -----
  +--> ?PR?_RFRELIABLEMACRETRYSENDP__1__SIGN...
LX51 LINKER/LOCATER V4.41                                                             05/23/2018  09:43:07  PAGE 20


  +--> ?PR?_SCHEDULERBASICP__TASKBASIC__POST...

RFRELIABLEMACRECEIVEP__1__SENDACKTASK...      ----- -----  ----- -----  ----- -----
  +--> ?PR?_RFRELIABLEMACRECEIVEP__1__SENDAC...

_RFRELIABLEMACRECEIVEP__1__SENDACK/APP        ----- -----  ----- -----  0735H 0737H
  +--> ?PR?_RFPACKETP__AMPACKET__DESTINATION...
  +--> ?PR?_AMRESOURCEP__2__AMSEND__SEND?APP

_AMRESOURCEP__2__AMSEND__SEND/APP             ----- -----  ----- -----  0738H 073EH
  +--> ?PR?__NESC_ATOMIC_START?APP
  +--> ?PR?___NESC_HTON_UINT8?APP
  +--> ?PR?___NESC_HTON_LEUINT8?APP
  +--> ?PR?___NESC_ATOMIC_END?APP
  +--> ?PR?_AMRESOURCECENTERP__AMRESOURCE__S...

_SCHEDULERBASICP__TASKBASIC__DEFAULT_...      ----- -----  ----- -----  0735H 0735H

REALMAINP__SOFTWAREINIT__INIT/APP             ----- -----  ----- -----  0732H 0732H
  +--> ?PR?DSNFILTERCENTERP__0__INIT__INIT?APP
  +--> ?PR?CC2530RANDOMLFSRP__INIT__INIT?APP
  +--> ?PR?_ECOMBINE?APP
  +--> ?PR?RFCONFIGP__INIT__INIT?APP
  +--> ?PR?HPLCC2530TIMER1P__0__INIT__INIT?APP
  +--> ?PR?HALFLASHP__INIT__INIT?APP

DSNFILTERCENTERP__0__INIT__INIT/APP           ----- -----  ----- -----  0733H 0733H

CC2530RANDOMLFSRP__INIT__INIT/APP             ----- -----  ----- -----  0733H 0735H

_ECOMBINE/APP                                 ----- -----  ----- -----  ----- -----

RFCONFIGP__INIT__INIT/APP                     ----- -----  ----- -----  ----- -----

HPLCC2530TIMER1P__0__INIT__INIT/APP           ----- -----  ----- -----  ----- -----
  +--> ?PR?_ECOMBINE?APP

HALFLASHP__INIT__INIT/APP                     ----- -----  ----- -----  ----- -----

__NESC_ENABLE_INTERRUPT/APP                   ----- -----  ----- -----  ----- -----

DIGBASEP__BOOT__BOOTED/APP                    ----- -----  ----- -----  0732H 0732H
  +--> ?PR?ATOSMACP__ATOSCONTROL__START?APP
  +--> ?PR?HPLCC2530UARTGENERICP__0__UARTSTD...
  +--> ?PR?__NESC_ATOMIC_START?APP
  +--> ?CO?APP
  +--> ?PR?PRINTF?PRINTF
  +--> ?PR?ATOS_DEBUG_UART_PRINT?APP
  +--> ?PR?RFPACKETP__AMPACKET__ADDRESS?APP
  +--> ?PR?_SCHEDULERBASICP__TASKBASIC__POST...

ATOSMACP__ATOSCONTROL__START/APP              ----- -----  ----- -----  0733H 0734H
  +--> ?PR?__NESC_ATOMIC_START?APP
  +--> ?PR?CC2530RANDOMLFSRP__RANDOM__RAND16...
  +--> ?PR?ATOSMACP__SUBATOSCONTROL__START?APP
  +--> ?PR?RFHARDWAREP__ATOSCONTROL__START?APP
  +--> ?PR?___NESC_ATOMIC_END?APP

ATOSMACP__SUBATOSCONTROL__START/APP           ----- -----  ----- -----  0735H 0735H
  +--> ?PR?RFRELIABLEMACRECEIVEP__1__ATOSCON...
  +--> ?PR?RFRELIABLEMACRETRYSENDP__1__ATOSC...
  +--> ?PR?_ECOMBINE?APP
  +--> ?PR?RFRELIABLEMACRECEIVEP__0__ATOSCON...
  +--> ?PR?RFRELIABLEMACRETRYSENDP__0__ATOSC...
  +--> ?PR?RFACTIVEMESSAGEP__ATOSCONTROL__ST...
LX51 LINKER/LOCATER V4.41                                                             05/23/2018  09:43:07  PAGE 21


  +--> ?PR?AMRESOURCECENTERP__ATOSCONTROL__S...
  +--> ?PR?RFMACBASECSMAP__ATOSCONTROL__STAR...

RFRELIABLEMACRECEIVEP__1__ATOSCONTROL...      ----- -----  ----- -----  0736H 0736H

RFRELIABLEMACRETRYSENDP__1__ATOSCONTR...      ----- -----  ----- -----  0736H 0736H
  +--> ?PR?RFRELIABLEMACSENDP__1__ATOSCONTRO...

RFRELIABLEMACSENDP__1__ATOSCONTROL__S...      ----- -----  ----- -----  0737H 0737H
  +--> ?PR?_VIRTUALIZETIMERC__0__TIMER__STOP...

RFRELIABLEMACRECEIVEP__0__ATOSCONTROL...      ----- -----  ----- -----  0736H 0736H

RFRELIABLEMACRETRYSENDP__0__ATOSCONTR...      ----- -----  ----- -----  0736H 0736H
  +--> ?PR?RFRELIABLEMACSENDP__0__ATOSCONTRO...

RFRELIABLEMACSENDP__0__ATOSCONTROL__S...      ----- -----  ----- -----  0737H 0737H
  +--> ?PR?_VIRTUALIZETIMERC__0__TIMER__STOP...

RFACTIVEMESSAGEP__ATOSCONTROL__START/APP      ----- -----  ----- -----  0736H 0736H

AMRESOURCECENTERP__ATOSCONTROL__START...      ----- -----  ----- -----  0736H 0736H
  +--> ?PR?RFMACBASESENDP__0__ATOSCONTROL__S...

RFMACBASESENDP__0__ATOSCONTROL__START...      ----- -----  ----- -----  0737H 0737H
  +--> ?PR?QUEUEEXC__0__QUEUEEX__CLEAR?APP
  +--> ?PR?CC2530RANDOMLFSRP__RANDOM__RAND16...

QUEUEEXC__0__QUEUEEX__CLEAR/APP               ----- -----  ----- -----  ----- -----
  +--> ?PR?QUEUEEXC__0__QUEUEEX__SIZE?APP
  +--> ?PR?_QUEUEEXC__0__QUEUEEX__REMOVE?APP

_QUEUEEXC__0__QUEUEEX__REMOVE/APP             ----- -----  ----- -----  0738H 0740H
  +--> ?PR?_QUEUEEXC__0__QUEUEEX__ELEMENT?APP
  +--> ?PR?QUEUEEXC__0__QUEUEEX__EMPTY?APP

RFMACBASECSMAP__ATOSCONTROL__START/APP        ----- -----  ----- -----  0736H 0736H
  +--> ?PR?TRANSFORMALARMC__1__ALARM__STOP?APP
  +--> ?PR?_FLASHIEEEP__FLASHIEEE__GETIEEE?APP

TRANSFORMALARMC__1__ALARM__STOP/APP           ----- -----  ----- -----  ----- -----
  +--> ?PR?HPLCC2530TIMER1P__0__ALARM1__STOP...

HPLCC2530TIMER1P__0__ALARM1__STOP/APP         ----- -----  ----- -----  ----- -----

RFHARDWAREP__ATOSCONTROL__START/APP           ----- -----  ----- -----  ----- -----
  +--> ?PR?RFPOWERP__RFPOWER__RESET?APP
  +--> ?PR?RFPOWERP__RFPOWER__RADIOON?APP
  +--> ?PR?RFPOWERP__RFPOWER__OSCON?APP
  +--> ?PR?RFPOWERP__RFPOWER__RXON?APP
  +--> ?PR?RFCONFIGP__RFCONFIG__FLUSH?APP
  +--> ?PR?RFHARDWARERXP__0__STDCONTROL__STA...
  +--> ?PR?RFHARDWARETXP__STDCONTROL__START?APP

RFPOWERP__RFPOWER__RESET/APP                  ----- -----  ----- -----  ----- -----

RFPOWERP__RFPOWER__RADIOON/APP                ----- -----  ----- -----  ----- -----

RFPOWERP__RFPOWER__OSCON/APP                  ----- -----  ----- -----  ----- -----

RFPOWERP__RFPOWER__RXON/APP                   ----- -----  ----- -----  ----- -----

RFCONFIGP__RFCONFIG__FLUSH/APP                ----- -----  ----- -----  ----- -----
  +--> ?PR?RFCONFIGP__RFCONFIGWRITE?APP

LX51 LINKER/LOCATER V4.41                                                             05/23/2018  09:43:07  PAGE 22


RFCONFIGP__RFCONFIGWRITE/APP                  ----- -----  ----- -----  ----- -----
  +--> ?PR?RFCONFIGP__WRITECHANNEL?APP
  +--> ?PR?RFCONFIGP__WRITEFILTER?APP
  +--> ?PR?RFCONFIGP__WRITEFIFOPTHREHOLD?APP
  +--> ?PR?RFCONFIGP__WRITETXPOWER?APP

RFCONFIGP__WRITECHANNEL/APP                   ----- -----  ----- -----  ----- -----

RFCONFIGP__WRITEFILTER/APP                    ----- -----  ----- -----  ----- -----

RFCONFIGP__WRITEFIFOPTHREHOLD/APP             ----- -----  ----- -----  ----- -----

RFCONFIGP__WRITETXPOWER/APP                   ----- -----  ----- -----  ----- -----

RFHARDWARERXP__0__STDCONTROL__START/APP       ----- -----  ----- -----  ----- -----
  +--> ?PR?RFINTERRUPTSP__INTERRUPTFIFOP__EN...
  +--> ?PR?RFINTERRUPTSP__INTERRUPTRFERR__EN...

RFINTERRUPTSP__INTERRUPTFIFOP__ENABLE...      ----- -----  ----- -----  ----- -----

RFINTERRUPTSP__INTERRUPTRFERR__ENABLE...      ----- -----  ----- -----  ----- -----

RFHARDWARETXP__STDCONTROL__START/APP          ----- -----  ----- -----  ----- -----

HPLCC2530UARTGENERICP__0__UARTSTDCONT...      ----- -----  ----- -----  ----- -----
  +--> ?PR?HALCC2530UART0ISRP__0__UART0STDCO...

HALCC2530UART0ISRP__0__UART0STDCONTRO...      ----- -----  ----- -----  ----- -----
  +--> ?PR?_HALCC2530UART0ISRP__0__DOUART0IN...

_HALCC2530UART0ISRP__0__DOUART0INIT/APP       ----- -----  ----- -----  ----- -----
  +--> ?PR?_UART0INIT?APP
  +--> ?PR?UART0INTENABLE?APP

UART0INTENABLE/APP                            ----- -----  ----- -----  ----- -----

SCHEDULERBASICP__SCHEDULER__TASKLOOP/APP      ----- -----  ----- -----  0732H 0733H
  +--> ?PR?__NESC_ATOMIC_START?APP
  +--> ?PR?SCHEDULERBASICP__POPTASK?APP
  +--> ?PR?___NESC_ATOMIC_END?APP
  +--> ?PR?RFHARDWARERXP__0__ATOSSCHEDULER__...
  +--> ?PR?TOPTASKMGRP__TOPTASKMGR__HASTASKS...
  +--> ?PR?TOPTASKMGRP__TOPTASKMGR__RUNTASKS...
  +--> ?PR?_SCHEDULERBASICP__TASKBASIC__RUNT...
  +--> ?PR?MCUSLEEPP__MCUSLEEP__SLEEP?APP

RFHARDWARERXP__0__ATOSSCHEDULER__PERI...      ----- -----  ----- -----  ----- -----

TOPTASKMGRP__TOPTASKMGR__HASTASKS/APP         ----- -----  ----- -----  0734H 0736H
  +--> ?PR?__NESC_ATOMIC_START?APP
  +--> ?PR?___NESC_ATOMIC_END?APP

TOPTASKMGRP__TOPTASKMGR__RUNTASKS/APP         ----- -----  ----- -----  0734H 0734H
  +--> ?PR?_TOPTASKMGRP__TOPTASKHANDLER__HAN...

_TOPTASKMGRP__TOPTASKHANDLER__HANDLER...      ----- -----  ----- -----  0735H 0735H
  +--> ?PR?HPLCC2530TIMER1P__0__TOPTASKHANDL...
  +--> ?PR?HALCC2530UART0ISRP__0__RXTASKHAND...
  +--> ?PR?HALCC2530UART0ISRP__0__TXTASKHAND...
  +--> ?PR?RFHARDWARERXP__0__TOPTASKHANDLER_...
  +--> ?PR?_TOPTASKMGRP__TOPTASKHANDLER__DEF...

HPLCC2530TIMER1P__0__TOPTASKHANDLER__...      ----- -----  ----- -----  0736H 0737H
  +--> ?PR?TRANSFORMALARMC__0__ALARMFROM__FI...
  +--> ?PR?TRANSFORMALARMC__1__ALARMFROM__FI...
LX51 LINKER/LOCATER V4.41                                                             05/23/2018  09:43:07  PAGE 23


  +--> ?PR?HPLCC2530TIMER1P__0__ALARM2__DEFA...
  +--> ?PR?HPLCC2530TIMER1P__0__COUNTER__OVE...
  +--> ?PR?__NESC_ATOMIC_START?APP
  +--> ?PR?___NESC_ATOMIC_END?APP

TRANSFORMALARMC__0__ALARMFROM__FIRED/APP      ----- -----  ----- -----  0738H 0738H
  +--> ?PR?__NESC_ATOMIC_START?APP
  +--> ?PR?ALARMTOTIMERC__0__ALARM__FIRED?APP
  +--> ?PR?TRANSFORMALARMC__0__SET_ALARM?APP
  +--> ?PR?___NESC_ATOMIC_END?APP

ALARMTOTIMERC__0__ALARM__FIRED/APP            ----- -----  ----- -----  ----- -----
  +--> ?PR?_SCHEDULERBASICP__TASKBASIC__POST...

TRANSFORMALARMC__1__ALARMFROM__FIRED/APP      ----- -----  ----- -----  0738H 0738H
  +--> ?PR?__NESC_ATOMIC_START?APP
  +--> ?PR?RFMACBASECSMAP__BACKOFFTIMER__FIR...
  +--> ?PR?TRANSFORMALARMC__1__SET_ALARM?APP
  +--> ?PR?___NESC_ATOMIC_END?APP

RFMACBASECSMAP__BACKOFFTIMER__FIRED/APP       ----- -----  ----- -----  ----- -----
  +--> ?PR?RFMACBASECSMAP__CONGESTION?APP
  +--> ?PR?_TRANSFORMALARMC__1__ALARM__START...
  +--> ?PR?_SCHEDULERBASICP__TASKBASIC__POST...

RFMACBASECSMAP__CONGESTION/APP                ----- -----  ----- -----  ----- -----
  +--> ?PR?RFMACBASECSMAP__CONGESTIONBACKOFF...
  +--> ?PR?_TRANSFORMALARMC__1__ALARM__START...
  +--> ?PR?_RFMACBASECSMAP__SIGNALDONE?APP

RFMACBASECSMAP__CONGESTIONBACKOFFTIME...      ----- -----  ----- -----  ----- -----
  +--> ?PR?CC2530RANDOMLFSRP__RANDOM__RAND16...

HPLCC2530TIMER1P__0__ALARM2__DEFAULT_...      ----- -----  ----- -----  ----- -----

HPLCC2530TIMER1P__0__COUNTER__OVERFLO...      ----- -----  ----- -----  ----- -----
  +--> ?PR?TRANSFORMCOUNTERC__1__COUNTERFROM...
  +--> ?PR?TRANSFORMCOUNTERC__0__COUNTERFROM...

TRANSFORMCOUNTERC__1__COUNTERFROM__OV...      ----- -----  ----- -----  0738H 0738H
  +--> ?PR?__NESC_ATOMIC_START?APP
  +--> ?PR?TRANSFORMALARMC__1__COUNTER__OVER...
  +--> ?PR?___NESC_ATOMIC_END?APP

TRANSFORMALARMC__1__COUNTER__OVERFLOW...      ----- -----  ----- -----  ----- -----

TRANSFORMCOUNTERC__0__COUNTERFROM__OV...      ----- -----  ----- -----  0738H 0738H
  +--> ?PR?__NESC_ATOMIC_START?APP
  +--> ?PR?TRANSFORMCOUNTERC__0__COUNTER__OV...
  +--> ?PR?___NESC_ATOMIC_END?APP

TRANSFORMCOUNTERC__0__COUNTER__OVERFL...      ----- -----  ----- -----  ----- -----
  +--> ?PR?TRANSFORMALARMC__0__COUNTER__OVER...
  +--> ?PR?COUNTERTOLOCALTIMEC__0__COUNTER__...

TRANSFORMALARMC__0__COUNTER__OVERFLOW...      ----- -----  ----- -----  ----- -----

COUNTERTOLOCALTIMEC__0__COUNTER__OVER...      ----- -----  ----- -----  ----- -----

HALCC2530UART0ISRP__0__RXTASKHANDLER_...      ----- -----  ----- -----  0736H 0736H
  +--> ?PR?_HPLCC2530UARTGENERICP__0__UART__...
  +--> ?PR?__NESC_ATOMIC_START?APP
  +--> ?PR?___NESC_ATOMIC_END?APP

_HPLCC2530UARTGENERICP__0__UART__GET/APP      ----- -----  ----- -----  0737H 073AH
LX51 LINKER/LOCATER V4.41                                                             05/23/2018  09:43:07  PAGE 24


  +--> ?PR?_DIGBASEP__UARTSTREAM__RECEIVEDON...
  +--> ?PR?_DIGBASEP__UARTSTREAM__RECEIVEDBY...

_DIGBASEP__UARTSTREAM__RECEIVEDONE/APP        ----- -----  ----- -----  073BH 0740H

_DIGBASEP__UARTSTREAM__RECEIVEDBYTE/APP       ----- -----  ----- -----  073BH 073FH
  +--> ?PR?_RFRELIABLEMACPACKETP__PACKET__GE...
  +--> ?PR?RFRELIABLEMACPACKETP__PACKET__MAX...
  +--> ?PR?__NESC_ATOMIC_START?APP
  +--> ?CO?APP
  +--> ?PR?PRINTF?PRINTF
  +--> ?PR?ATOS_DEBUG_UART_PRINT?APP
  +--> ?PR?_SCHEDULERBASICP__TASKBASIC__POST...

RFRELIABLEMACPACKETP__PACKET__MAXPAYL...      ----- -----  ----- -----  ----- -----
  +--> ?PR?RFPACKETP__PACKET__MAXPAYLOADLENG...

RFPACKETP__PACKET__MAXPAYLOADLENGTH/APP       ----- -----  ----- -----  ----- -----

HALCC2530UART0ISRP__0__TXTASKHANDLER_...      ----- -----  ----- -----  ----- -----
  +--> ?PR?HPLCC2530UARTGENERICP__0__UART__P...

HPLCC2530UARTGENERICP__0__UART__PUTDO...      ----- -----  ----- -----  0736H 0738H
  +--> ?PR?_HALCC2530UART0ISRP__0__UART0__PU...
  +--> ?PR?_DIGBASEP__UARTSTREAM__SENDDONE?APP

_HALCC2530UART0ISRP__0__UART0__PUT/APP        ----- -----  ----- -----  0739H 0739H
  +--> ?PR?_UART0PUTCHAR?APP
  +--> ?PR?__NESC_ATOMIC_START?APP
  +--> ?PR?___NESC_ATOMIC_END?APP

_DIGBASEP__UARTSTREAM__SENDDONE/APP           ----- -----  ----- -----  0739H 073EH

RFHARDWARERXP__0__TOPTASKHANDLER__HAN...      ----- -----  ----- -----  0736H 0736H
  +--> ?PR?RFHARDWARERXP__0__RECEIVENEXTPACK...
  +--> ?PR?__NESC_ATOMIC_START?APP
  +--> ?PR?___NESC_ATOMIC_END?APP

RFHARDWARERXP__0__RECEIVENEXTPACKET/APP       ----- -----  ----- -----  ----- -----
  +--> ?PR?_RFHARDWARERXP__0__READRFBUF?APP
  +--> ?PR?_RFMACBASERECEIVEP__RFHARDWARERX_...

_RFHARDWARERXP__0__READRFBUF/APP              ----- -----  ----- -----  ----- -----

_RFMACBASERECEIVEP__RFHARDWARERX__RXP...      ----- -----  ----- -----  0737H 0742H
  +--> ?PR?___NESC_NTOH_LEUINT16?APP
  +--> ?PR?___NESC_HTON_INT8?APP
  +--> ?PR?___NESC_NTOH_INT8?APP
  +--> ?PR?___NESC_HTON_UINT8?APP
  +--> ?PR?___NESC_NTOH_LEUINT8?APP
  +--> ?PR?___NESC_HTON_LEUINT8?APP
  +--> ?PR?_RFACTIVEMESSAGEP__CORERECEIVE__R...

___NESC_NTOH_INT8/APP                         ----- -----  ----- -----  ----- -----
  +--> ?PR?___NESC_NTOH_UINT8?APP

_RFACTIVEMESSAGEP__CORERECEIVE__RECEI...      ----- -----  ----- -----  0743H 074AH
  +--> ?PR?_RFPACKETP__PACKETEX__ISVALIDPACK...
  +--> ?PR?_RFPACKETP__AMPACKET__TYPE?APP
  +--> ?PR?_RFPACKETP__PACKET__GETPAYLOAD?APP
  +--> ?PR?_RFPACKETP__AMPACKET__ISFORME?APP
  +--> ?PR?_RFACTIVEMESSAGEP__RECEIVE__RECEI...
  +--> ?PR?_RFACTIVEMESSAGEP__SNOOP__DEFAULT...

_RFPACKETP__PACKETEX__ISVALIDPACKET/APP       ----- -----  ----- -----  ----- -----
LX51 LINKER/LOCATER V4.41                                                             05/23/2018  09:43:07  PAGE 25


  +--> ?PR?___NESC_NTOH_LEUINT8?APP
  +--> ?PR?RFPACKETP__PACKETEX__PACKETHEADER...

RFPACKETP__PACKETEX__PACKETHEADERSIZE...      ----- -----  ----- -----  ----- -----

_RFPACKETP__AMPACKET__TYPE/APP                ----- -----  ----- -----  ----- -----
  +--> ?PR?___NESC_NTOH_LEUINT8?APP

_RFPACKETP__AMPACKET__ISFORME/APP             ----- -----  ----- -----  074BH 074DH
  +--> ?PR?___NESC_NTOH_LEUINT16?APP
  +--> ?PR?RFPACKETP__AMPACKET__ADDRESS?APP

_RFACTIVEMESSAGEP__RECEIVE__RECEIVE/APP       ----- -----  ----- -----  074BH 0755H
  +--> ?PR?_RFRELIABLEMACRECEIVEP__0__SUBREC...
  +--> ?PR?_RFRELIABLEMACSENDP__0__RECEIVEAC...
  +--> ?PR?_RFRELIABLEMACRECEIVEP__1__SUBREC...
  +--> ?PR?_RFRELIABLEMACSENDP__1__RECEIVEAC...
  +--> ?PR?_RFACTIVEMESSAGEP__RECEIVE__DEFAU...

_RFRELIABLEMACRECEIVEP__0__SUBRECEIVE...      ----- -----  ----- -----  0756H 0762H
  +--> ?PR?_RFRELIABLEMACPACKETP__PACKETEX__...
  +--> ?PR?_RFRELIABLEMACPACKETP__PACKETEX__...
  +--> ?PR?_RFPACKETP__PACKET__GETPAYLOAD?APP
  +--> ?PR?_RFRELIABLEMACACKP__RFRELIABLEMAC...
  +--> ?PR?_RFPACKETP__AMPACKET__GROUP?APP
  +--> ?PR?_RFPACKETP__AMPACKET__SETGROUP?APP
  +--> ?PR?_RFPACKETP__AMPACKET__SOURCE?APP
  +--> ?PR?_RFPACKETP__AMPACKET__SETDESTINAT...
  +--> ?PR?_SCHEDULERBASICP__TASKBASIC__POST...
  +--> ?PR?_DSNFILTERCENTERP__0__DSNFILTER__...
  +--> ?PR?_DIGBASEP__RECEIVE__RECEIVE?APP

_RFRELIABLEMACPACKETP__PACKETEX__ISVA...      ----- -----  ----- -----  0763H 0765H
  +--> ?PR?_RFPACKETP__PACKETEX__ISVALIDPACK...
  +--> ?PR?_RFPACKETP__PACKET__PAYLOADLENGTH...
  +--> ?PR?RFRELIABLEMACPACKETP__PACKETEX__P...

RFRELIABLEMACPACKETP__PACKETEX__PACKE...      ----- -----  ----- -----  ----- -----

_RFRELIABLEMACACKP__RFRELIABLEMACACK_...      ----- -----  ----- -----  0763H 076EH
  +--> ?PR?__NESC_ATOMIC_START?APP
  +--> ?PR?_RFRELIABLEMACACKP__FILLACKMESSAG...
  +--> ?PR?_RFRELIABLEMACACKP__RFRELIABLEMAC...
  +--> ?PR?___NESC_ATOMIC_END?APP

_RFRELIABLEMACACKP__FILLACKMESSAGEDEF...      ----- -----  ----- -----  076FH 0778H
  +--> ?PR?___NESC_HTON_UINT8?APP

_RFRELIABLEMACACKP__RFRELIABLEMACACKE...      ----- -----  ----- -----  076FH 0778H

_RFPACKETP__AMPACKET__GROUP/APP               ----- -----  ----- -----  ----- -----
  +--> ?PR?___NESC_NTOH_LEUINT16?APP

_RFPACKETP__AMPACKET__SOURCE/APP              ----- -----  ----- -----  ----- -----
  +--> ?PR?___NESC_NTOH_LEUINT16?APP

_DSNFILTERCENTERP__0__DSNFILTER__FILT...      ----- -----  ----- -----  0763H 0764H
  +--> ?PR?__NESC_ATOMIC_START?APP
  +--> ?PR?_DSNFILTERCENTERP__0__FILTERDSN?APP
  +--> ?PR?___NESC_ATOMIC_END?APP

_DSNFILTERCENTERP__0__FILTERDSN/APP           ----- -----  ----- -----  0765H 0769H
  +--> ?PR?_DSNFILTERCENTERP__0__INDEXOFADDR...
  +--> ?PR?DSNFILTERCENTERP__0__FINDNEXTADDR...

LX51 LINKER/LOCATER V4.41                                                             05/23/2018  09:43:07  PAGE 26


_DSNFILTERCENTERP__0__INDEXOFADDRESS/APP      ----- -----  ----- -----  076AH 076CH

DSNFILTERCENTERP__0__FINDNEXTADDRESS/APP      ----- -----  ----- -----  076AH 076CH

_DIGBASEP__RECEIVE__RECEIVE/APP               ----- -----  ----- -----  0763H 0773H
  +--> ?PR?__NESC_ATOMIC_START?APP
  +--> ?CO?APP
  +--> ?PR?PRINTF?PRINTF
  +--> ?PR?ATOS_DEBUG_UART_PRINT?APP
  +--> ?PR?___NESC_ATOMIC_END?APP

_RFRELIABLEMACSENDP__0__RECEIVEACK__R...      ----- -----  ----- -----  0756H 0768H
  +--> ?PR?_RFRELIABLEMACPACKETP__PACKETEX__...
  +--> ?PR?___NESC_NTOH_UINT8?APP
  +--> ?PR?_RFPACKETP__AMPACKET__DESTINATION...
  +--> ?PR?_RFPACKETP__AMPACKET__SOURCE?APP
  +--> ?PR?___NESC_NTOH_INT8?APP
  +--> ?PR?___NESC_HTON_INT8?APP
  +--> ?PR?___NESC_HTON_UINT8?APP
  +--> ?PR?_RFRELIABLEMACACKP__RFRELIABLEMAC...
  +--> ?PR?_RFRELIABLEMACSENDP__0__SIGNALDON...

_RFRELIABLEMACACKP__RFRELIABLEMACACK_...      ----- -----  ----- -----  0769H 0771H
  +--> ?PR?_RFRELIABLEMACACKP__RFRELIABLEMAC...

_RFRELIABLEMACACKP__RFRELIABLEMACACKE...      ----- -----  ----- -----  0772H 077AH

_RFRELIABLEMACRECEIVEP__1__SUBRECEIVE...      ----- -----  ----- -----  0756H 0762H
  +--> ?PR?_RFRELIABLEMACPACKETP__PACKETEX__...
  +--> ?PR?_RFRELIABLEMACPACKETP__PACKETEX__...
  +--> ?PR?_RFPACKETP__PACKET__GETPAYLOAD?APP
  +--> ?PR?_RFRELIABLEMACACKP__RFRELIABLEMAC...
  +--> ?PR?_RFPACKETP__AMPACKET__GROUP?APP
  +--> ?PR?_RFPACKETP__AMPACKET__SETGROUP?APP
  +--> ?PR?_RFPACKETP__AMPACKET__SOURCE?APP
  +--> ?PR?_RFPACKETP__AMPACKET__SETDESTINAT...
  +--> ?PR?_SCHEDULERBASICP__TASKBASIC__POST...
  +--> ?PR?_DSNFILTERCENTERP__0__DSNFILTER__...
  +--> ?PR?_ATOSNETSTDP__RECEIVE__RECEIVE?APP

_ATOSNETSTDP__RECEIVE__RECEIVE/APP            ----- -----  ----- -----  0763H 0770H
  +--> ?PR?__NESC_ATOMIC_START?APP
  +--> ?PR?_ATOSNETSTDP__RECEIVENODESTATUSUP...
  +--> ?PR?_ATOSNETSTDP__RECEIVEDISCOVERY?APP
  +--> ?PR?_ATOSNETSTDP__RECEIVESETIEEE?APP
  +--> ?PR?_ATOSNETSTDP__RECEIVEREBOOT?APP
  +--> ?PR?_ATOSNETSTDP__RECEIVETRACE?APP
  +--> ?PR?_ATOSNETSTDP__RECEIVETRACEACK?APP
  +--> ?PR?___NESC_ATOMIC_END?APP

_ATOSNETSTDP__RECEIVENODESTATUSUP/APP         ----- -----  ----- -----  0771H 0776H
  +--> ?PR?_ATOSNETSTDP__ATOSNETSTD__DEFAULT...

_ATOSNETSTDP__ATOSNETSTD__DEFAULT__RE...      ----- -----  ----- -----  0777H 077CH

_ATOSNETSTDP__RECEIVEDISCOVERY/APP            ----- -----  ----- -----  0771H 0776H
  +--> ?PR?_RFPACKETP__AMPACKET__SOURCE?APP
  +--> ?PR?_ATOSNETSTDP__ATOSNETSTD__DEFAULT...
  +--> ?PR?_SCHEDULERBASICP__TASKBASIC__POST...

_ATOSNETSTDP__ATOSNETSTD__DEFAULT__RE...      ----- -----  ----- -----  0777H 0779H

_ATOSNETSTDP__RECEIVESETIEEE/APP              ----- -----  ----- -----  0771H 0776H
  +--> ?PR?_ATOSNETSTDP__ATOSNETSTD__DEFAULT...
  +--> ?PR?_FLASHIEEEP__FLASHIEEE__WRITEIEEE...
LX51 LINKER/LOCATER V4.41                                                             05/23/2018  09:43:07  PAGE 27


  +--> ?PR?_SCHEDULERBASICP__TASKBASIC__POST...

_ATOSNETSTDP__ATOSNETSTD__DEFAULT__RE...      ----- -----  ----- -----  0777H 0779H

_FLASHIEEEP__FLASHIEEE__WRITEIEEE/APP         ----- -----  ----- -----  ----- -----
  +--> ?PR?_HALFLASHP__HALFLASH__ERASE?APP
  +--> ?PR?_HALFLASHP__HALFLASH__WRITE?APP
  +--> ?PR?FLASHIEEEP__READFROMFLASH?APP
  +--> ?PR?FLASHIEEEP__FLASHIEEE__WRITETOREG...
  +--> ?PR?FLASHIEEEP__FLASHIEEE__WRITETOAM?APP

_ATOSNETSTDP__RECEIVEREBOOT/APP               ----- -----  ----- -----  0771H 0776H
  +--> ?PR?_ATOSNETSTDP__ATOSNETSTD__DEFAULT...
  +--> ?PR?_SCHEDULERBASICP__TASKBASIC__POST...

_ATOSNETSTDP__ATOSNETSTD__DEFAULT__RE...      ----- -----  ----- -----  0777H 0779H

_ATOSNETSTDP__RECEIVETRACE/APP                ----- -----  ----- -----  0771H 0778H
  +--> ?PR?RFPACKETP__AMPACKET__ADDRESS?APP
  +--> ?PR?_ATOSNETSTDP__INDEXOFTRACEITEM?APP
  +--> ?PR?___NESC_NTOH_INT8?APP
  +--> ?PR?_ATOSNETSTDP__TRACEFORWARD?APP
  +--> ?PR?_ATOSNETSTDP__ATOSNETSTD__DEFAULT...

_ATOSNETSTDP__TRACEFORWARD/APP                ----- -----  ----- -----  0779H 0782H
  +--> ?PR?_ATOSNETSTDP__PACKET__PAYLOADLENG...
  +--> ?PR?_RFRELIABLEMACRETRYSENDP__1__AMSE...
  +--> ?PR?_ATOSNETSTDP__TRACEEND?APP

_ATOSNETSTDP__ATOSNETSTD__DEFAULT__RE...      ----- -----  ----- -----  0779H 077EH

_ATOSNETSTDP__RECEIVETRACEACK/APP             ----- -----  ----- -----  0771H 0778H
  +--> ?PR?RFPACKETP__AMPACKET__ADDRESS?APP
  +--> ?PR?_ATOSNETSTDP__INDEXOFTRACEITEM?APP
  +--> ?PR?___NESC_NTOH_INT8?APP
  +--> ?PR?_ATOSNETSTDP__TRACEBACKWARD?APP
  +--> ?PR?_ATOSNETSTDP__ATOSNETSTD__DEFAULT...

_ATOSNETSTDP__ATOSNETSTD__DEFAULT__RE...      ----- -----  ----- -----  0779H 077EH

_RFRELIABLEMACSENDP__1__RECEIVEACK__R...      ----- -----  ----- -----  0756H 0768H
  +--> ?PR?_RFRELIABLEMACPACKETP__PACKETEX__...
  +--> ?PR?___NESC_NTOH_UINT8?APP
  +--> ?PR?_RFPACKETP__AMPACKET__DESTINATION...
  +--> ?PR?_RFPACKETP__AMPACKET__SOURCE?APP
  +--> ?PR?___NESC_NTOH_INT8?APP
  +--> ?PR?___NESC_HTON_INT8?APP
  +--> ?PR?___NESC_HTON_UINT8?APP
  +--> ?PR?_RFRELIABLEMACACKP__RFRELIABLEMAC...
  +--> ?PR?_RFRELIABLEMACSENDP__1__SIGNALDON...

_RFACTIVEMESSAGEP__RECEIVE__DEFAULT__...      ----- -----  ----- -----  0756H 075DH

_RFACTIVEMESSAGEP__SNOOP__DEFAULT__RE...      ----- -----  ----- -----  074BH 0752H

_TOPTASKMGRP__TOPTASKHANDLER__DEFAULT...      ----- -----  ----- -----  0736H 0736H

MCUSLEEPP__MCUSLEEP__SLEEP/APP                ----- -----  ----- -----  ----- -----
  +--> ?PR?MCUSLEEPP__MCUSLEEPCONTROL__DEFAU...
  +--> ?PR?__NESC_ENABLE_INTERRUPT?APP
  +--> ?PR?_MCUSLEEPP__MODULERESET__DEFAULT_...
  +--> ?PR?MCUSLEEPP__MCUSLEEPCONTROL__DEFAU...

MCUSLEEPP__MCUSLEEPCONTROL__DEFAULT__...      ----- -----  ----- -----  ----- -----

LX51 LINKER/LOCATER V4.41                                                             05/23/2018  09:43:07  PAGE 28


_MCUSLEEPP__MODULERESET__DEFAULT__RES...      ----- -----  ----- -----  0734H 0734H

MCUSLEEPP__MCUSLEEPCONTROL__DEFAULT__...      ----- -----  ----- -----  ----- -----

?C_INITSEG                                    ----- -----  ----- -----  ----- -----

*** NEW ROOT ********************************

__VECTOR_0/APP                                ----- -----  ----- -----  ----- -----
  +--> ?PR?RFINTERRUPTSP__INT_RFERR__FIRED?APP

RFINTERRUPTSP__INT_RFERR__FIRED/APP           ----- -----  ----- -----  ----- -----
  +--> ?PR?RFHARDWARERXP__0__INTERRUPTRFERR_...

RFHARDWARERXP__0__INTERRUPTRFERR__FIR...      ----- -----  ----- -----  ----- -----

*** NEW ROOT ********************************

__VECTOR_16/APP                               ----- -----  ----- -----  ----- -----
  +--> ?PR?RFINTERRUPTSP__INT_RF__FIRED?APP

RFINTERRUPTSP__INT_RF__FIRED/APP              ----- -----  ----- -----  ----- -----
  +--> ?PR?RFHARDWARERXP__0__INTERRUPTFIFOP_...

RFHARDWARERXP__0__INTERRUPTFIFOP__FIR...      ----- -----  ----- -----  ----- -----

*** NEW ROOT ********************************

__VECTOR_9/APP                                ----- -----  ----- -----  ----- -----
  +--> ?PR?HPLCC2530TIMER1P__0__INT_TIM1__FI...

HPLCC2530TIMER1P__0__INT_TIM1__FIRED/APP      ----- -----  ----- -----  07EAH 07ECH
  +--> ?PR?__NESC_ATOMIC_START?APP
  +--> ?PR?_HPLCC2530TIMER1P__0__CAPTURECHAN...
  +--> ?PR?___NESC_ATOMIC_END?APP

_HPLCC2530TIMER1P__0__CAPTURECHANNEL2...      ----- -----  ----- -----  07EDH 07EEH

*** NEW ROOT ********************************

__VECTOR_2/APP                                ----- -----  ----- -----  ----- -----
  +--> ?PR?HALCC2530UART0ISRP__0__INT_UART0_...

HALCC2530UART0ISRP__0__INT_UART0_RX__...      ----- -----  ----- -----  ----- -----

*** NEW ROOT ********************************

__VECTOR_7/APP                                ----- -----  ----- -----  ----- -----
  +--> ?PR?HALCC2530UART0ISRP__0__INT_UART0_...

HALCC2530UART0ISRP__0__INT_UART0_TX__...      ----- -----  ----- -----  ----- -----

*** NEW ROOT ********************************

__VECTOR_3/APP                                ----- -----  ----- -----  ----- -----
  +--> ?PR?PLATFORMINTERRUPTC__INT_UART1_RX_...

PLATFORMINTERRUPTC__INT_UART1_RX__DEF...      ----- -----  ----- -----  ----- -----

*** NEW ROOT ********************************

__VECTOR_14/APP                               ----- -----  ----- -----  ----- -----
  +--> ?PR?PLATFORMINTERRUPTC__INT_UART1_TX_...

PLATFORMINTERRUPTC__INT_UART1_TX__DEF...      ----- -----  ----- -----  ----- -----
LX51 LINKER/LOCATER V4.41                                                             05/23/2018  09:43:07  PAGE 29



*** NEW ROOT ********************************

__VECTOR_5/APP                                ----- -----  ----- -----  ----- -----
  +--> ?PR?PLATFORMINTERRUPTC__INT_ST__DEFAU...

PLATFORMINTERRUPTC__INT_ST__DEFAULT__...      ----- -----  ----- -----  ----- -----

*** NEW ROOT ********************************

__VECTOR_13/APP                               ----- -----  ----- -----  ----- -----
  +--> ?PR?PLATFORMINTERRUPTC__INT_P0__DEFAU...

PLATFORMINTERRUPTC__INT_P0__DEFAULT__...      ----- -----  ----- -----  ----- -----

*** NEW ROOT ********************************

__VECTOR_15/APP                               ----- -----  ----- -----  ----- -----
  +--> ?PR?PLATFORMINTERRUPTC__INT_P1__DEFAU...

PLATFORMINTERRUPTC__INT_P1__DEFAULT__...      ----- -----  ----- -----  ----- -----



PUBLIC SYMBOLS OF MODULE:  APP (?C_STARTUP)


      VALUE       CLASS    TYPE      PUBLIC SYMBOL NAME
      =================================================
      0200078DH   XDATA    BYTE      ?_HalFlashP__HalCC2530FlashRead?BYTE
      0200078DH   XDATA    BYTE      ?_HalFlashP__HalCC2530FlashWrite?BYTE
      02000880H   XDATA    BYTE      ?_OLEDP__DO_DRAW_CHAR?BYTE
      020007BAH   XDATA    ---       ?_PRINTF?BYTE
      020007BAH   XDATA    ---       ?_SPRINTF?BYTE
      01001938H   CODE     ---       ?C?CCASE
      010015A9H   CODE     ---       ?C?CLDOPTR
      01001590H   CODE     ---       ?C?CLDPTR
      00000000H   NUMBER   ---       ?C?CODESEG
      0100156AH   CODE     ---       ?C?COPY
      010015E8H   CODE     ---       ?C?CSTOPTR
      010015D6H   CODE     ---       ?C?CSTPTR
      01001149H   CODE     ---       ?C?FPADD
      0100103DH   CODE     ---       ?C?FPCONVERT
      01001343H   CODE     ---       ?C?FPDIV
      01001450H   CODE     ---       ?C?FPGETOPN2
      0100123AH   CODE     ---       ?C?FPMUL
      01001485H   CODE     ---       ?C?FPNANRESULT
      0100148FH   CODE     ---       ?C?FPOVERFLOW
      01001467H   CODE     ---       ?C?FPRESULT
      0100147BH   CODE     ---       ?C?FPRESULT2
      01001000H   CODE     ---       ?C?FPROUND
      01001145H   CODE     ---       ?C?FPSUB
      0100148CH   CODE     ---       ?C?FPUNDERFLOW
      01001410H   CODE     ---       ?C?FTNPWR
      0100195EH   CODE     ---       ?C?ICALL
      01001962H   CODE     ---       ?C?ICALL2
      0100165FH   CODE     ---       ?C?ILDIX
      01001675H   CODE     ---       ?C?ILDOPTR
      01001964H   CODE     ---       ?C?LIMUL
      010019E1H   CODE     ---       ?C?LLDCODE
      01001A17H   CODE     ---       ?C?LLDCODE0
      010019BDH   CODE     ---       ?C?LLDIDATA
      010019F1H   CODE     ---       ?C?LLDIDATA0
      010018AFH   CODE     ---       ?C?LLDIXDATA
      010018A6H   CODE     ---       ?C?LLDIXDATA1
LX51 LINKER/LOCATER V4.41                                                             05/23/2018  09:43:07  PAGE 30


      010018A8H   CODE     ---       ?C?LLDIXDATA8
      010017E8H   CODE     ---       ?C?LLDOPTR
      01001876H   CODE     ---       ?C?LLDOPTR0
      010019D5H   CODE     ---       ?C?LLDPDATA
      01001A0AH   CODE     ---       ?C?LLDPDATA0
      010017C8H   CODE     ---       ?C?LLDPTR
      01001856H   CODE     ---       ?C?LLDPTR0
      010019C9H   CODE     ---       ?C?LLDXDATA
      010019FEH   CODE     ---       ?C?LLDXDATA0
      010017B5H   CODE     ---       ?C?LSHL
      01001A27H   CODE     ---       ?C?LSTIDATA
      010018E7H   CODE     ---       ?C?LSTKXDATA
      01001832H   CODE     ---       ?C?LSTOPTR
      01001A33H   CODE     ---       ?C?LSTPDATA
      01001818H   CODE     ---       ?C?LSTPTR
      010018DBH   CODE     ---       ?C?LSTXDATA
      01001991H   CODE     ---       ?C?MEMSET
      01001918H   CODE     ---       ?C?PLDIXDATA
      0100192FH   CODE     ---       ?C?PSTXDATA
      0100177BH   CODE     ---       ?C?SLCMP
      0100160AH   CODE     ---       ?C?UIDIV
      01001791H   CODE     ---       ?C?ULCMP
      010016E9H   CODE     ---       ?C?ULDIV
      010017A2H   CODE     ---       ?C?ULSHR
      00000000H   NUMBER   ---       ?C?XDATASEG
      01004E6EH   CODE     ---       ?C_START
      01000000H   CODE     ---       ?C_STARTUP
      0100765BH   CODE     ---       ___nesc_atomic_end
      01007224H   CODE     ---       __nesc_atomic_start
      01006EFFH   CODE     ---       __vector_0
      010075A4H   CODE     ---       __vector_13
      010076AFH   CODE     ---       __vector_14
      010075B0H   CODE     ---       __vector_15
      01006E5BH   CODE     ---       __vector_16
      01006F1EH   CODE     ---       __vector_2
      010076A7H   CODE     ---       __vector_3
      010076B7H   CODE     ---       __vector_5
      0100769FH   CODE     ---       __vector_7
      01006E7EH   CODE     ---       __vector_9
      0100014DH   CODE     ---       _HalFlashP__HalCC2530FlashRead
      01000086H   CODE     ---       _HalFlashP__HalCC2530FlashWrite
*SFR* 000000A8H.6 DATA     BIT       _IEN06
*SFR* 000000B8H.6 DATA     BIT       _IEN16
*SFR* 000000B8H.7 DATA     BIT       _IEN17
*SFR* 000000E8H.5 DATA     BIT       _IRCON25
*SFR* 000000E8H.6 DATA     BIT       _IRCON26
*SFR* 000000E8H.7 DATA     BIT       _IRCON27
*SFR* 000000C0H.6 DATA     BIT       _IRCON6
      010063E6H   CODE     NEAR LAB  _OLEDP__DO_DRAW_CHAR
      010074B4H   CODE     NEAR LAB  _OLEDP__WRITE_BUF
      010074C3H   CODE     NEAR LAB  _OLEDP__WRITE_CMD
*SFR* 000000A0H.5 DATA     BIT       _P2_5
*SFR* 000000A0H.6 DATA     BIT       _P2_6
*SFR* 000000A0H.7 DATA     BIT       _P2_7
      01001AAAH   CODE     ---       _PRINTF
      01006C9FH   CODE     ---       _PUTCHAR
*SFR* 00000098H.2 DATA     BIT       _S0CON2
*SFR* 00000098H.3 DATA     BIT       _S0CON3
*SFR* 00000098H.4 DATA     BIT       _S0CON4
*SFR* 00000098H.5 DATA     BIT       _S0CON5
*SFR* 00000098H.6 DATA     BIT       _S0CON6
*SFR* 00000098H.7 DATA     BIT       _S0CON7
*SFR* 0000008EH   DATA     BYTE      _SFR8E
*SFR* 00000099H   DATA     BYTE      _SFR99
*SFR* 000000AAH   DATA     BYTE      _SFRAA
LX51 LINKER/LOCATER V4.41                                                             05/23/2018  09:43:07  PAGE 31


*SFR* 000000B0H   DATA     BYTE      _SFRB0
*SFR* 000000B7H   DATA     BYTE      _SFRB7
*SFR* 000000C8H   DATA     BYTE      _SFRC8
      01001AA4H   CODE     ---       _SPRINTF
*SFR* 00000088H.4 DATA     BIT       _TCON4
*SFR* 00000088H.6 DATA     BIT       _TCON6
*SFR* 000000D8H.7 DATA     BIT       _TIMIF7
      0200087DH   XDATA    ---       _writeFunction
      01000800H   CODE     NEAR LAB  ABOOTCOPY
      0100094EH   CODE     NEAR LAB  ABOOTINIT
      010009A1H   CODE     NEAR LAB  ABOOTREPROGRAM
      010009AFH   CODE     NEAR LAB  ABOOTRESET
*SFR* 000000D0H.6 DATA     BIT       AC
*SFR* 000000E0H   DATA     BYTE      ACC
      02000056H   XDATA    WORD      ActiveMessageAddressC__addr
      020001D0H   XDATA    BYTE      ActiveMessageAddressC__group
*SFR* 000000F2H   DATA     BYTE      ADCCFG
*SFR* 000000B4H   DATA     BYTE      ADCCON1
*SFR* 000000B5H   DATA     BYTE      ADCCON2
*SFR* 000000B6H   DATA     BYTE      ADCCON3
*SFR* 000000BBH   DATA     BYTE      ADCH
*SFR* 000000A8H.1 DATA     BIT       ADCIE
*SFR* 00000088H.5 DATA     BIT       ADCIF
*SFR* 000000BAH   DATA     BYTE      ADCL
      02000532H   XDATA    DWORD     AlarmToTimerC__0__m_dt
      02000003H   XDATA    BYTE      AlarmToTimerC__0__m_oneshot
      02000135H   XDATA    BYTE      AMResourceCenterP__m_started
      010009B7H   CODE     NEAR LAB  ANPABOOTP__ABOOTREPROGRAM
*SFR* 000000F2H   DATA     BYTE      APCFG
      02000013H   XDATA    BYTE      AtosMacP__m_started
      0200072DH   XDATA    WORD      AtosNetStdP__m_ack_addr
      02000002H   XDATA    BYTE      AtosNetStdP__m_node_status
      0200013BH   XDATA    ---       AtosNetStdP__m_send_msg
*SFR* 000000F0H   DATA     BYTE      B
*SFR* 000000C6H   DATA     BYTE      CLKCON
*SFR* 000000C6H   DATA     BYTE      CLKCONCMD
*SFR* 0000009EH   DATA     BYTE      CLKCONSTA
      02000524H   XDATA    BYTE      current_task_id
*SFR* 000000D0H.7 DATA     BIT       CY
      0200053AH   XDATA    BYTE      DigBaseP__m_address_index
      02000058H   XDATA    ---       DigBaseP__m_address_str
      02000522H   XDATA    BYTE      DigBaseP__m_input_type
      020001EDH   XDATA    BYTE      DigBaseP__m_len
      02000286H   XDATA    ---       DigBaseP__m_msg
      0200066EH   XDATA    BYTE      DigBaseP__sensor_type
*SFR* 000000D5H   DATA     BYTE      DMA0CFGH
*SFR* 000000D4H   DATA     BYTE      DMA0CFGL
*SFR* 000000D3H   DATA     BYTE      DMA1CFGH
*SFR* 000000D2H   DATA     BYTE      DMA1CFGL
*SFR* 000000D6H   DATA     BYTE      DMAARM
*SFR* 000000B8H   DATA     BIT       DMAIE
*SFR* 000000C0H   DATA     BIT       DMAIF
*SFR* 000000D1H   DATA     BYTE      DMAIRQ
*SFR* 000000D7H   DATA     BYTE      DMAREQ
*SFR* 00000083H   DATA     BYTE      DPH0
*SFR* 00000085H   DATA     BYTE      DPH1
*SFR* 00000082H   DATA     BYTE      DPL0
*SFR* 00000084H   DATA     BYTE      DPL1
*SFR* 00000092H   DATA     BYTE      DPS
      0200006CH   XDATA    ---       DsnFilterCenterP__0__m_filter_address
      020006C5H   XDATA    ---       DsnFilterCenterP__0__m_filter_dsn
      02000523H   XDATA    BYTE      DsnFilterCenterP__0__m_filter_index
*SFR* 000000A8H.7 DATA     BIT       EA
*SFR* 000000B3H   DATA     BYTE      ENCCS
*SFR* 000000B1H   DATA     BYTE      ENCDI
LX51 LINKER/LOCATER V4.41                                                             05/23/2018  09:43:07  PAGE 32


*SFR* 000000B2H   DATA     BYTE      ENCDO
*SFR* 000000A8H.4 DATA     BIT       ENCIE
*SFR* 00000098H   DATA     BIT       ENCIF_0
*SFR* 00000098H.1 DATA     BIT       ENCIF_1
*SFR* 000000D0H.5 DATA     BIT       F0
*SFR* 000000D0H.1 DATA     BIT       F1
      02000004H   XDATA    ---       FlashIEEEP__m_ieee
      020006BDH   XDATA    ---       FlashIEEEP__m_ieee_flash
*SFR* 0000009FH   DATA     BYTE      FMAP
      0200067AH   XDATA    ---       HalCC2530Uart0IsrP__0__uartRxBuf__data
      02000014H   XDATA    BYTE      HalCC2530Uart0IsrP__0__uartRxBuf_head
      02000138H   XDATA    BYTE      HalCC2530Uart0IsrP__0__uartRxBuf_tail
      02000015H   XDATA    BYTE      HplCC2530Timer1P__0__m_alarm_flag
      020001EAH   XDATA    ---       HplCC2530UartGenericP__0__m_rx_buf
      0200027EH   XDATA    WORD      HplCC2530UartGenericP__0__m_rx_len
      0200041CH   XDATA    WORD      HplCC2530UartGenericP__0__m_rx_pos
      02000280H   XDATA    ---       HplCC2530UartGenericP__0__m_tx_buf
      02000283H   XDATA    WORD      HplCC2530UartGenericP__0__m_tx_len
      0200051FH   XDATA    WORD      HplCC2530UartGenericP__0__m_tx_pos
*SFR* 000000A8H   DATA     BYTE      IEN0
*SFR* 000000B8H   DATA     BYTE      IEN1
*SFR* 0000009AH   DATA     BYTE      IEN2
*SFR* 000000A9H   DATA     BYTE      IP0
*SFR* 000000B9H   DATA     BYTE      IP1
*SFR* 000000C0H   DATA     BYTE      IRCON
*SFR* 000000E8H   DATA     BYTE      IRCON2
*SFR* 00000088H   DATA     BIT       IT0
*SFR* 00000088H.2 DATA     BIT       IT1
      0200013AH   XDATA    BYTE      m_critical_state
      01006719H   CODE     ---       main
      02000136H   XDATA    BYTE      McuSleepP__m_need_sleep
*SFR* 000000C7H   DATA     BYTE      MEMCTR
*SFR* 00000093H   DATA     BYTE      MPAGE
      01006A82H   CODE     NEAR LAB  OLEDP__DO_CLS
*SFR* 000000D0H.2 DATA     BIT       OV
*SFR* 000000D0H   DATA     BIT       P
*SFR* 00000080H   DATA     BYTE      P0
*SFR* 00000080H   DATA     BIT       P0_0
*SFR* 00000080H.1 DATA     BIT       P0_1
*SFR* 00000080H.2 DATA     BIT       P0_2
*SFR* 00000080H.3 DATA     BIT       P0_3
*SFR* 00000080H.4 DATA     BIT       P0_4
*SFR* 00000080H.5 DATA     BIT       P0_5
*SFR* 00000080H.6 DATA     BIT       P0_6
*SFR* 00000080H.7 DATA     BIT       P0_7
*SFR* 000000F3H   DATA     BYTE      P0_ALT
*SFR* 000000FDH   DATA     BYTE      P0_DIR
*SFR* 000000FDH   DATA     BYTE      P0DIR
*SFR* 000000B8H.5 DATA     BIT       P0IE
*SFR* 000000ABH   DATA     BYTE      P0IEN
*SFR* 000000C0H.5 DATA     BIT       P0IF
*SFR* 00000089H   DATA     BYTE      P0IFG
*SFR* 0000008FH   DATA     BYTE      P0INP
*SFR* 000000F3H   DATA     BYTE      P0SEL
*SFR* 00000090H   DATA     BYTE      P1
*SFR* 00000090H   DATA     BIT       P1_0
*SFR* 00000090H.1 DATA     BIT       P1_1
*SFR* 00000090H.2 DATA     BIT       P1_2
*SFR* 00000090H.3 DATA     BIT       P1_3
*SFR* 00000090H.4 DATA     BIT       P1_4
*SFR* 00000090H.5 DATA     BIT       P1_5
*SFR* 00000090H.6 DATA     BIT       P1_6
*SFR* 00000090H.7 DATA     BIT       P1_7
*SFR* 000000F4H   DATA     BYTE      P1_ALT
*SFR* 000000FEH   DATA     BYTE      P1_DIR
LX51 LINKER/LOCATER V4.41                                                             05/23/2018  09:43:07  PAGE 33


*SFR* 000000FEH   DATA     BYTE      P1DIR
*SFR* 0000008DH   DATA     BYTE      P1IEN
*SFR* 000000E8H.3 DATA     BIT       P1IF
*SFR* 0000008AH   DATA     BYTE      P1IFG
*SFR* 000000F6H   DATA     BYTE      P1INP
*SFR* 000000F4H   DATA     BYTE      P1SEL
*SFR* 000000A0H   DATA     BYTE      P2
*SFR* 000000A0H   DATA     BIT       P2_0
*SFR* 000000A0H.1 DATA     BIT       P2_1
*SFR* 000000A0H.2 DATA     BIT       P2_2
*SFR* 000000A0H.3 DATA     BIT       P2_3
*SFR* 000000A0H.4 DATA     BIT       P2_4
*SFR* 000000F5H   DATA     BYTE      P2_ALT
*SFR* 000000FFH   DATA     BYTE      P2_DIR
*SFR* 000000FFH   DATA     BYTE      P2DIR
*SFR* 000000ACH   DATA     BYTE      P2IEN
*SFR* 000000E8H   DATA     BIT       P2IF
*SFR* 0000008BH   DATA     BYTE      P2IFG
*SFR* 000000F7H   DATA     BYTE      P2INP
*SFR* 000000F5H   DATA     BYTE      P2SEL
      01000700H   CONST    WORD      PARAM_APRO_ID
      01000702H   CONST    WORD      PARAM_APRO_VER
*SFR* 00000087H   DATA     BYTE      PCON
*SFR* 000000F1H   DATA     BYTE      PERCFG
*SFR* 0000008CH   DATA     BYTE      PICTL
*SFR* 000000AEH   DATA     BYTE      PMUX
*SFR* 000000D0H   DATA     BYTE      PSW
      0200052DH   XDATA    BYTE      QueueExC__0__head
      020005CEH   XDATA    ---       QueueExC__0__queue
      0200072CH   XDATA    BYTE      QueueExC__0__size
      0200066DH   XDATA    BYTE      QueueExC__0__tail
      02000012H   XDATA    BYTE      rf_rmac_dsn
      02000317H   XDATA    BYTE      RfActiveMessageP__m_started
      0200066CH   XDATA    BYTE      RfConfigP__m_address_recognition
      0200052EH   XDATA    BYTE      RfConfigP__m_channel
      02000001H   XDATA    BYTE      RfConfigP__m_hw_auto_ack
      02000679H   XDATA    BYTE      RfConfigP__m_tx_power
*SFR* 000000D9H   DATA     BYTE      RFD
*SFR* 000000BFH   DATA     BYTE      RFERRF
*SFR* 000000A8H   DATA     BIT       RFERRIE
*SFR* 00000088H.1 DATA     BIT       RFERRIF
      020001EEH   XDATA    ---       RfHardwareRxP__0__m_frame_buf
      0200031AH   XDATA    ---       RfHardwareRxP__0__rxbuf__data
      02000539H   XDATA    BYTE      RfHardwareRxP__0__rxbuf_head
      020006BAH   XDATA    BYTE      RfHardwareRxP__0__rxbuf_tail
*SFR* 000000E9H   DATA     BYTE      RFIRQF0
*SFR* 00000091H   DATA     BYTE      RFIRQF1
      0200005DH   XDATA    BYTE      RfMacBaseCsmaP__m_cancel
      0200072FH   XDATA    BYTE      RfMacBaseCsmaP__m_congestion_count
      020005CDH   XDATA    BYTE      RfMacBaseCsmaP__m_congestion_delay
      02000729H   XDATA    ---       RfMacBaseCsmaP__m_msg
      02000530H   XDATA    BYTE      RfMacBaseCsmaP__m_result
      020001D1H   XDATA    BYTE      RfMacBaseCsmaP__m_started
      02000531H   XDATA    BYTE      RfMacBaseCsmaP__m_state
      0200066FH   XDATA    ---       RfMacBaseCsmaP__m_test_ieee
      0200053BH   XDATA    WORD      RfMacBaseCsmaP__m_this_delay
      0200052FH   XDATA    BYTE      RfMacBaseCsmaP__m_this_random
      02000137H   XDATA    BYTE      RfMacBaseSendP__0__m_hardware_dsn
      02000018H   XDATA    BYTE      RfMacBaseSendP__0__m_sending
      02000139H   XDATA    BYTE      RfMacBaseSendP__0__m_started
      02000016H   XDATA    WORD      RfPacketP__m_addr
      02000538H   XDATA    BYTE      RfPacketP__m_address_saved
      020001CBH   XDATA    BYTE      RfPacketP__m_group
      02000134H   XDATA    BYTE      RfPacketP__m_group_saved
      0200053DH   XDATA    ---       RfReliableMacReceiveP__0__m_ack_msg
LX51 LINKER/LOCATER V4.41                                                             05/23/2018  09:43:07  PAGE 34


      02000010H   XDATA    BYTE      RfReliableMacReceiveP__0__m_started
      020005DAH   XDATA    ---       RfReliableMacReceiveP__1__m_ack_msg
      02000011H   XDATA    BYTE      RfReliableMacReceiveP__1__m_started
      020001E4H   XDATA    ---       RfReliableMacRetrySendP__0__m_msg
      020001CEH   XDATA    BYTE      RfReliableMacRetrySendP__0__m_retry_times
      02000536H   XDATA    BYTE      RfReliableMacRetrySendP__0__m_sending
      0200066AH   XDATA    BYTE      RfReliableMacRetrySendP__0__m_started
      020001E7H   XDATA    ---       RfReliableMacRetrySendP__1__m_msg
      020001CFH   XDATA    BYTE      RfReliableMacRetrySendP__1__m_retry_times
      02000537H   XDATA    BYTE      RfReliableMacRetrySendP__1__m_sending
      0200066BH   XDATA    BYTE      RfReliableMacRetrySendP__1__m_started
      0200004FH   XDATA    ---       RfReliableMacSendP__0__m_msg
      020006BBH   XDATA    BYTE      RfReliableMacSendP__0__m_result
      02000285H   XDATA    BYTE      RfReliableMacSendP__0__m_sending
      0200051EH   XDATA    BYTE      RfReliableMacSendP__0__m_started
      02000053H   XDATA    ---       RfReliableMacSendP__1__m_msg
      020006BCH   XDATA    BYTE      RfReliableMacSendP__1__m_result
      02000316H   XDATA    BYTE      RfReliableMacSendP__1__m_sending
      02000521H   XDATA    BYTE      RfReliableMacSendP__1__m_started
*SFR* 000000E1H   DATA     BYTE      RFST
*SFR* 000000BDH   DATA     BYTE      RNDH
*SFR* 000000BCH   DATA     BYTE      RNDL
*SFR* 000000D0H.3 DATA     BIT       RS0
*SFR* 000000D0H.4 DATA     BIT       RS1
*SFR* 00000098H   DATA     BYTE      S0CON
*SFR* 0000009BH   DATA     BYTE      S1CON
      02000730H   XDATA    BYTE      SchedulerBasicP__m_head
      020001D2H   XDATA    ---       SchedulerBasicP__m_next
      02000052H   XDATA    BYTE      SchedulerBasicP__m_tail
*SFR* 000000BEH   DATA     BYTE      SLEEP
*SFR* 000000BEH   DATA     BYTE      SLEEPCMD
*SFR* 0000009DH   DATA     BYTE      SLEEPSTA
*SFR* 00000081H   DATA     BYTE      SP
*SFR* 00000095H   DATA     BYTE      ST0
*SFR* 00000096H   DATA     BYTE      ST1
*SFR* 00000097H   DATA     BYTE      ST2
*SFR* 000000A8H.5 DATA     BIT       STIE
*SFR* 000000C0H.7 DATA     BIT       STIF
*SFR* 000000ADH   DATA     BYTE      STLOAD
*SFR* 000000DBH   DATA     BYTE      T1CC0H
*SFR* 000000DAH   DATA     BYTE      T1CC0L
*SFR* 000000DDH   DATA     BYTE      T1CC1H
*SFR* 000000DCH   DATA     BYTE      T1CC1L
*SFR* 000000DFH   DATA     BYTE      T1CC2H
*SFR* 000000DEH   DATA     BYTE      T1CC2L
*SFR* 000000E5H   DATA     BYTE      T1CCTL0
*SFR* 000000E6H   DATA     BYTE      T1CCTL1
*SFR* 000000E7H   DATA     BYTE      T1CCTL2
*SFR* 000000E3H   DATA     BYTE      T1CNTH
*SFR* 000000E2H   DATA     BYTE      T1CNTL
*SFR* 000000E4H   DATA     BYTE      T1CTL
*SFR* 000000B8H.1 DATA     BIT       T1IE
*SFR* 000000C0H.1 DATA     BIT       T1IF
*SFR* 000000D8H.6 DATA     BIT       T1OVFIM
*SFR* 000000AFH   DATA     BYTE      T1STAT
*SFR* 0000009CH   DATA     BYTE      T2CSPCFG
*SFR* 00000094H   DATA     BYTE      T2CTRL
*SFR* 0000009CH   DATA     BYTE      T2EVTCFG
*SFR* 000000B8H.2 DATA     BIT       T2IE
*SFR* 000000C0H.2 DATA     BIT       T2IF
*SFR* 000000A1H   DATA     BYTE      T2IRQF
*SFR* 000000A7H   DATA     BYTE      T2IRQM
*SFR* 000000A2H   DATA     BYTE      T2M0
*SFR* 000000A3H   DATA     BYTE      T2M1
*SFR* 000000A4H   DATA     BYTE      T2MOVF0
LX51 LINKER/LOCATER V4.41                                                             05/23/2018  09:43:07  PAGE 35


*SFR* 000000A5H   DATA     BYTE      T2MOVF1
*SFR* 000000A6H   DATA     BYTE      T2MOVF2
*SFR* 000000C3H   DATA     BYTE      T2MSEL
*SFR* 000000CDH   DATA     BYTE      T3CC0
*SFR* 000000CFH   DATA     BYTE      T3CC1
*SFR* 000000CCH   DATA     BYTE      T3CCTL0
*SFR* 000000CEH   DATA     BYTE      T3CCTL1
*SFR* 000000D8H.1 DATA     BIT       T3CH0IF
*SFR* 000000D8H.2 DATA     BIT       T3CH1IF
*SFR* 000000CAH   DATA     BYTE      T3CNT
*SFR* 000000CBH   DATA     BYTE      T3CTL
*SFR* 000000B8H.3 DATA     BIT       T3IE
*SFR* 000000C0H.3 DATA     BIT       T3IF
*SFR* 000000D8H   DATA     BIT       T3OVFIF
*SFR* 000000EDH   DATA     BYTE      T4CC0
*SFR* 000000EFH   DATA     BYTE      T4CC1
*SFR* 000000ECH   DATA     BYTE      T4CCTL0
*SFR* 000000EEH   DATA     BYTE      T4CCTL1
*SFR* 000000D8H.4 DATA     BIT       T4CH0IF
*SFR* 000000D8H.5 DATA     BIT       T4CH1IF
*SFR* 000000EAH   DATA     BYTE      T4CNT
*SFR* 000000EBH   DATA     BYTE      T4CTL
*SFR* 000000B8H.4 DATA     BIT       T4IE
*SFR* 000000C0H.4 DATA     BIT       T4IF
*SFR* 000000D8H.3 DATA     BIT       T4OVFIF
*SFR* 00000088H   DATA     BYTE      TCON
*SFR* 000000D8H   DATA     BYTE      TIMIF
      0200000CH   XDATA    ---       TopTaskMgrP__m_task_flag
      02000318H   XDATA    WORD      TOS_IEEE_PANID
      0200041AH   XDATA    WORD      TOS_IEEE_SADDR
      02000677H   XDATA    WORD      TOS_NODE_ID
      02000525H   XDATA    DWORD     TransformAlarmC__0__m_dt
      0200005EH   XDATA    DWORD     TransformAlarmC__0__m_t0
      02000529H   XDATA    DWORD     TransformAlarmC__1__m_dt
      02000068H   XDATA    DWORD     TransformAlarmC__1__m_t0
      02000062H   XDATA    DWORD     TransformCounterC__0__m_upper
      02000066H   XDATA    WORD      TransformCounterC__1__m_upper
*SFR* 000000C2H   DATA     BYTE      U0BAUD
*SFR* 00000086H   DATA     BYTE      U0CSR
*SFR* 000000C1H   DATA     BYTE      U0DBUF
*SFR* 000000C5H   DATA     BYTE      U0GCR
*SFR* 000000C4H   DATA     BYTE      U0UCR
*SFR* 000000F8H   DATA     BIT       U1ACTIVE
*SFR* 000000FAH   DATA     BYTE      U1BAUD
*SFR* 000000F8H   DATA     BYTE      U1CSR
*SFR* 000000F9H   DATA     BYTE      U1DBUF
*SFR* 000000F8H.3 DATA     BIT       U1ERR
*SFR* 000000F8H.4 DATA     BIT       U1FE
*SFR* 000000FCH   DATA     BYTE      U1GCR
*SFR* 000000F8H.7 DATA     BIT       U1MODE
*SFR* 000000F8H.6 DATA     BIT       U1RE
*SFR* 000000F8H.2 DATA     BIT       U1RX_BYTE
*SFR* 000000F8H.5 DATA     BIT       U1SLAVE
*SFR* 000000F8H.1 DATA     BIT       U1TX_BYTE
*SFR* 000000FBH   DATA     BYTE      U1UCR
      0200041EH   XDATA    ---       uart_debug_buf
      020001CCH   XDATA    INT       uart_debug_level
*SFR* 000000A8H.2 DATA     BIT       URX0IE
*SFR* 00000088H.3 DATA     BIT       URX0IF
*SFR* 000000A8H.3 DATA     BIT       URX1IE
*SFR* 00000088H.7 DATA     BIT       URX1IF
*SFR* 000000E8H.1 DATA     BIT       UTX0IF
*SFR* 000000E8H.2 DATA     BIT       UTX1IF
      02000019H   XDATA    ---       VirtualizeTimerC__0__m_timers
*SFR* 000000C9H   DATA     BYTE      WDCTL
LX51 LINKER/LOCATER V4.41                                                             05/23/2018  09:43:07  PAGE 36


*SFR* 000000E8H.4 DATA     BIT       WDTIF
      020007EFH   XDATA    ---       writeFunctionBuffer



SYMBOL TABLE OF MODULE:  APP (?C_STARTUP)

      VALUE       REP       CLASS    TYPE      SYMBOL NAME
      ====================================================
      ---         MODULE    ---      ---       ?C_STARTUP
      01000000H   PUBLIC    CODE     ---       ?C_STARTUP
      000000E0H   SYMBOL    DATA     ---       ACC
      000000F0H   SYMBOL    DATA     ---       B
      00000083H   SYMBOL    DATA     ---       DPH
      00000082H   SYMBOL    DATA     ---       DPL
      00000000H   SYMBOL    NUMBER   ---       IBPSTACK
      00000100H   SYMBOL    NUMBER   ---       IBPSTACKTOP
      00000080H   SYMBOL    NUMBER   ---       IDATALEN
      01004E1CH   SYMBOL    CODE     ---       IDATALOOP
      00000000H   SYMBOL    NUMBER   ---       PBPSTACK
      00000100H   SYMBOL    NUMBER   ---       PBPSTACKTOP
      00000000H   SYMBOL    NUMBER   ---       PDATALEN
      00000000H   SYMBOL    NUMBER   ---       PDATASTART
      00000000H   SYMBOL    NUMBER   ---       PPAGE
      00000000H   SYMBOL    NUMBER   ---       PPAGEENABLE
      000000A0H   SYMBOL    DATA     ---       PPAGE_SFR
      00000081H   SYMBOL    DATA     ---       SP
      01004E19H   SYMBOL    CODE     ---       STARTUP1
      00000000H   SYMBOL    NUMBER   ---       XBPSTACK
      00000000H   SYMBOL    NUMBER   ---       XBPSTACKTOP
      00001EFEH   SYMBOL    NUMBER   ---       XDATALEN
      01004E27H   SYMBOL    CODE     ---       XDATALOOP
      00000001H   SYMBOL    NUMBER   ---       XDATASTART
      01000000H   LINE      CODE     ---       #126
      01004E19H   LINE      CODE     ---       #133
      01004E1BH   LINE      CODE     ---       #134
      01004E1CH   LINE      CODE     ---       #135
      01004E1DH   LINE      CODE     ---       #136
      01004E1FH   LINE      CODE     ---       #140
      01004E22H   LINE      CODE     ---       #141
      01004E24H   LINE      CODE     ---       #143
      01004E26H   LINE      CODE     ---       #147
      01004E27H   LINE      CODE     ---       #148
      01004E28H   LINE      CODE     ---       #149
      01004E29H   LINE      CODE     ---       #150
      01004E2BH   LINE      CODE     ---       #151
      01004E2DH   LINE      CODE     ---       #185
      01004E30H   LINE      CODE     ---       #196

      ---         MODULE    ---      ---       APP
      02000730H   PUBLIC    XDATA    BYTE      SchedulerBasicP__m_head
      0200072FH   PUBLIC    XDATA    BYTE      RfMacBaseCsmaP__m_congestion_count
      0200072DH   PUBLIC    XDATA    WORD      AtosNetStdP__m_ack_addr
      0200072CH   PUBLIC    XDATA    BYTE      QueueExC__0__size
      02000729H   PUBLIC    XDATA    ---       RfMacBaseCsmaP__m_msg
      020006C5H   PUBLIC    XDATA    ---       DsnFilterCenterP__0__m_filter_dsn
      020006BDH   PUBLIC    XDATA    ---       FlashIEEEP__m_ieee_flash
      020006BCH   PUBLIC    XDATA    BYTE      RfReliableMacSendP__1__m_result
      020006BBH   PUBLIC    XDATA    BYTE      RfReliableMacSendP__0__m_result
      020006BAH   PUBLIC    XDATA    BYTE      RfHardwareRxP__0__rxbuf_tail
      0200067AH   PUBLIC    XDATA    ---       HalCC2530Uart0IsrP__0__uartRxBuf__data
      02000679H   PUBLIC    XDATA    BYTE      RfConfigP__m_tx_power
      02000677H   PUBLIC    XDATA    WORD      TOS_NODE_ID
      0200066FH   PUBLIC    XDATA    ---       RfMacBaseCsmaP__m_test_ieee
      0200066EH   PUBLIC    XDATA    BYTE      DigBaseP__sensor_type
LX51 LINKER/LOCATER V4.41                                                             05/23/2018  09:43:07  PAGE 37


      0200066DH   PUBLIC    XDATA    BYTE      QueueExC__0__tail
      0200066CH   PUBLIC    XDATA    BYTE      RfConfigP__m_address_recognition
      0200066BH   PUBLIC    XDATA    BYTE      RfReliableMacRetrySendP__1__m_started
      0200066AH   PUBLIC    XDATA    BYTE      RfReliableMacRetrySendP__0__m_started
      020005DAH   PUBLIC    XDATA    ---       RfReliableMacReceiveP__1__m_ack_msg
      020005CEH   PUBLIC    XDATA    ---       QueueExC__0__queue
      020005CDH   PUBLIC    XDATA    BYTE      RfMacBaseCsmaP__m_congestion_delay
      0200053DH   PUBLIC    XDATA    ---       RfReliableMacReceiveP__0__m_ack_msg
      0200053BH   PUBLIC    XDATA    WORD      RfMacBaseCsmaP__m_this_delay
      0200053AH   PUBLIC    XDATA    BYTE      DigBaseP__m_address_index
      02000539H   PUBLIC    XDATA    BYTE      RfHardwareRxP__0__rxbuf_head
      02000538H   PUBLIC    XDATA    BYTE      RfPacketP__m_address_saved
      02000537H   PUBLIC    XDATA    BYTE      RfReliableMacRetrySendP__1__m_sending
      02000536H   PUBLIC    XDATA    BYTE      RfReliableMacRetrySendP__0__m_sending
      02000532H   PUBLIC    XDATA    DWORD     AlarmToTimerC__0__m_dt
      02000531H   PUBLIC    XDATA    BYTE      RfMacBaseCsmaP__m_state
      02000530H   PUBLIC    XDATA    BYTE      RfMacBaseCsmaP__m_result
      0200052FH   PUBLIC    XDATA    BYTE      RfMacBaseCsmaP__m_this_random
      0200052EH   PUBLIC    XDATA    BYTE      RfConfigP__m_channel
      0200052DH   PUBLIC    XDATA    BYTE      QueueExC__0__head
      02000529H   PUBLIC    XDATA    DWORD     TransformAlarmC__1__m_dt
      02000525H   PUBLIC    XDATA    DWORD     TransformAlarmC__0__m_dt
      02000524H   PUBLIC    XDATA    BYTE      current_task_id
      02000523H   PUBLIC    XDATA    BYTE      DsnFilterCenterP__0__m_filter_index
      02000522H   PUBLIC    XDATA    BYTE      DigBaseP__m_input_type
      02000521H   PUBLIC    XDATA    BYTE      RfReliableMacSendP__1__m_started
      0200051FH   PUBLIC    XDATA    WORD      HplCC2530UartGenericP__0__m_tx_pos
      0200051EH   PUBLIC    XDATA    BYTE      RfReliableMacSendP__0__m_started
      0200041EH   PUBLIC    XDATA    ---       uart_debug_buf
      0200041CH   PUBLIC    XDATA    WORD      HplCC2530UartGenericP__0__m_rx_pos
      0200041AH   PUBLIC    XDATA    WORD      TOS_IEEE_SADDR
      0200031AH   PUBLIC    XDATA    ---       RfHardwareRxP__0__rxbuf__data
      02000318H   PUBLIC    XDATA    WORD      TOS_IEEE_PANID
      02000317H   PUBLIC    XDATA    BYTE      RfActiveMessageP__m_started
      02000316H   PUBLIC    XDATA    BYTE      RfReliableMacSendP__1__m_sending
      02000286H   PUBLIC    XDATA    ---       DigBaseP__m_msg
      02000285H   PUBLIC    XDATA    BYTE      RfReliableMacSendP__0__m_sending
      02000283H   PUBLIC    XDATA    WORD      HplCC2530UartGenericP__0__m_tx_len
      02000280H   PUBLIC    XDATA    ---       HplCC2530UartGenericP__0__m_tx_buf
      0200027EH   PUBLIC    XDATA    WORD      HplCC2530UartGenericP__0__m_rx_len
      020001EEH   PUBLIC    XDATA    ---       RfHardwareRxP__0__m_frame_buf
      020001EDH   PUBLIC    XDATA    BYTE      DigBaseP__m_len
      020001EAH   PUBLIC    XDATA    ---       HplCC2530UartGenericP__0__m_rx_buf
      020001E7H   PUBLIC    XDATA    ---       RfReliableMacRetrySendP__1__m_msg
      020001E4H   PUBLIC    XDATA    ---       RfReliableMacRetrySendP__0__m_msg
      020001D2H   PUBLIC    XDATA    ---       SchedulerBasicP__m_next
      020001D1H   PUBLIC    XDATA    BYTE      RfMacBaseCsmaP__m_started
      020001D0H   PUBLIC    XDATA    BYTE      ActiveMessageAddressC__group
      020001CFH   PUBLIC    XDATA    BYTE      RfReliableMacRetrySendP__1__m_retry_times
      020001CEH   PUBLIC    XDATA    BYTE      RfReliableMacRetrySendP__0__m_retry_times
      020001CCH   PUBLIC    XDATA    INT       uart_debug_level
      020001CBH   PUBLIC    XDATA    BYTE      RfPacketP__m_group
      0200013BH   PUBLIC    XDATA    ---       AtosNetStdP__m_send_msg
      0200013AH   PUBLIC    XDATA    BYTE      m_critical_state
      02000139H   PUBLIC    XDATA    BYTE      RfMacBaseSendP__0__m_started
      02000138H   PUBLIC    XDATA    BYTE      HalCC2530Uart0IsrP__0__uartRxBuf_tail
      02000137H   PUBLIC    XDATA    BYTE      RfMacBaseSendP__0__m_hardware_dsn
      02000136H   PUBLIC    XDATA    BYTE      McuSleepP__m_need_sleep
      02000135H   PUBLIC    XDATA    BYTE      AMResourceCenterP__m_started
      02000134H   PUBLIC    XDATA    BYTE      RfPacketP__m_group_saved
      0200006CH   PUBLIC    XDATA    ---       DsnFilterCenterP__0__m_filter_address
      02000068H   PUBLIC    XDATA    DWORD     TransformAlarmC__1__m_t0
      02000066H   PUBLIC    XDATA    WORD      TransformCounterC__1__m_upper
      02000062H   PUBLIC    XDATA    DWORD     TransformCounterC__0__m_upper
      0200005EH   PUBLIC    XDATA    DWORD     TransformAlarmC__0__m_t0
LX51 LINKER/LOCATER V4.41                                                             05/23/2018  09:43:07  PAGE 38


      0200005DH   PUBLIC    XDATA    BYTE      RfMacBaseCsmaP__m_cancel
      02000058H   PUBLIC    XDATA    ---       DigBaseP__m_address_str
      02000056H   PUBLIC    XDATA    WORD      ActiveMessageAddressC__addr
      02000053H   PUBLIC    XDATA    ---       RfReliableMacSendP__1__m_msg
      02000052H   PUBLIC    XDATA    BYTE      SchedulerBasicP__m_tail
      0200004FH   PUBLIC    XDATA    ---       RfReliableMacSendP__0__m_msg
      02000019H   PUBLIC    XDATA    ---       VirtualizeTimerC__0__m_timers
      02000018H   PUBLIC    XDATA    BYTE      RfMacBaseSendP__0__m_sending
      02000016H   PUBLIC    XDATA    WORD      RfPacketP__m_addr
      02000015H   PUBLIC    XDATA    BYTE      HplCC2530Timer1P__0__m_alarm_flag
      02000014H   PUBLIC    XDATA    BYTE      HalCC2530Uart0IsrP__0__uartRxBuf_head
      02000013H   PUBLIC    XDATA    BYTE      AtosMacP__m_started
      02000012H   PUBLIC    XDATA    BYTE      rf_rmac_dsn
      02000011H   PUBLIC    XDATA    BYTE      RfReliableMacReceiveP__1__m_started
      02000010H   PUBLIC    XDATA    BYTE      RfReliableMacReceiveP__0__m_started
      0200000CH   PUBLIC    XDATA    ---       TopTaskMgrP__m_task_flag
      02000004H   PUBLIC    XDATA    ---       FlashIEEEP__m_ieee
      02000003H   PUBLIC    XDATA    BYTE      AlarmToTimerC__0__m_oneshot
      02000002H   PUBLIC    XDATA    BYTE      AtosNetStdP__m_node_status
      02000001H   PUBLIC    XDATA    BYTE      RfConfigP__m_hw_auto_ack
      010075B0H   PUBLIC    CODE     ---       __vector_15
      010075A4H   PUBLIC    CODE     ---       __vector_13
      010076B7H   PUBLIC    CODE     ---       __vector_5
      010076AFH   PUBLIC    CODE     ---       __vector_14
      010076A7H   PUBLIC    CODE     ---       __vector_3
      0100769FH   PUBLIC    CODE     ---       __vector_7
      01006F1EH   PUBLIC    CODE     ---       __vector_2
      01006E7EH   PUBLIC    CODE     ---       __vector_9
      01006E5BH   PUBLIC    CODE     ---       __vector_16
      01006EFFH   PUBLIC    CODE     ---       __vector_0
      01006719H   PUBLIC    CODE     ---       main
      0100765BH   PUBLIC    CODE     ---       ___nesc_atomic_end
      01007224H   PUBLIC    CODE     ---       __nesc_atomic_start
      000000E8H.4 SFRSYM    DATA     BIT       WDTIF
      000000C9H   SFRSYM    DATA     BYTE      WDCTL
      00000080H   SFRSYM    DATA     BYTE      P0
      00000090H   SFRSYM    DATA     BYTE      P1
      000000A0H   SFRSYM    DATA     BYTE      P2
      000000F8H.5 SFRSYM    DATA     BIT       U1SLAVE
      000000D8H   SFRSYM    DATA     BIT       T3OVFIF
      000000D0H.6 SFRSYM    DATA     BIT       AC
      000000A2H   SFRSYM    DATA     BYTE      T2M0
      000000DBH   SFRSYM    DATA     BYTE      T1CC0H
      000000D8H.3 SFRSYM    DATA     BIT       T4OVFIF
      000000A3H   SFRSYM    DATA     BYTE      T2M1
      000000DDH   SFRSYM    DATA     BYTE      T1CC1H
      000000A8H.7 SFRSYM    DATA     BIT       EA
      000000DFH   SFRSYM    DATA     BYTE      T1CC2H
      000000DAH   SFRSYM    DATA     BYTE      T1CC0L
      000000D8H.6 SFRSYM    DATA     BIT       T1OVFIM
      000000DCH   SFRSYM    DATA     BYTE      T1CC1L
      000000DEH   SFRSYM    DATA     BYTE      T1CC2L
      000000A8H   SFRSYM    DATA     BYTE      IEN0
      00000083H   SFRSYM    DATA     BYTE      DPH0
      000000B8H   SFRSYM    DATA     BYTE      IEN1
      00000085H   SFRSYM    DATA     BYTE      DPH1
      000000B8H.5 SFRSYM    DATA     BIT       P0IE
      0000009AH   SFRSYM    DATA     BYTE      IEN2
      000000C0H.5 SFRSYM    DATA     BIT       P0IF
      00000080H   SFRSYM    DATA     BIT       P0_0
      000000E8H.3 SFRSYM    DATA     BIT       P1IF
      000000BBH   SFRSYM    DATA     BYTE      ADCH
      00000090H   SFRSYM    DATA     BIT       P1_0
      00000082H   SFRSYM    DATA     BYTE      DPL0
      00000080H.1 SFRSYM    DATA     BIT       P0_1
LX51 LINKER/LOCATER V4.41                                                             05/23/2018  09:43:07  PAGE 39


      000000F8H.4 SFRSYM    DATA     BIT       U1FE
      000000E8H   SFRSYM    DATA     BIT       P2IF
      000000D8H.7 SFRSYM    DATA     BIT       _TIMIF7
      000000C6H   SFRSYM    DATA     BYTE      CLKCONCMD
      000000A8H   SFRSYM    DATA     BIT       RFERRIE
      000000A0H   SFRSYM    DATA     BIT       P2_0
      00000090H.1 SFRSYM    DATA     BIT       P1_1
      00000084H   SFRSYM    DATA     BYTE      DPL1
      00000080H.2 SFRSYM    DATA     BIT       P0_2
      000000C0H.6 SFRSYM    DATA     BIT       _IRCON6
      000000A0H.1 SFRSYM    DATA     BIT       P2_1
      00000090H.2 SFRSYM    DATA     BIT       P1_2
      00000088H.1 SFRSYM    DATA     BIT       RFERRIF
      00000080H.3 SFRSYM    DATA     BIT       P0_3
      000000B8H.1 SFRSYM    DATA     BIT       T1IE
      000000A0H.2 SFRSYM    DATA     BIT       P2_2
      00000090H.3 SFRSYM    DATA     BIT       P1_3
      00000080H.4 SFRSYM    DATA     BIT       P0_4
      000000C0H.1 SFRSYM    DATA     BIT       T1IF
      000000BAH   SFRSYM    DATA     BYTE      ADCL
      000000B8H.2 SFRSYM    DATA     BIT       T2IE
      000000A0H.3 SFRSYM    DATA     BIT       P2_3
      00000090H.4 SFRSYM    DATA     BIT       P1_4
      00000080H.5 SFRSYM    DATA     BIT       P0_5
      000000C0H.2 SFRSYM    DATA     BIT       T2IF
      000000B8H.3 SFRSYM    DATA     BIT       T3IE
      000000A0H.4 SFRSYM    DATA     BIT       P2_4
      00000090H.5 SFRSYM    DATA     BIT       P1_5
      00000080H.6 SFRSYM    DATA     BIT       P0_6
      000000C0H.3 SFRSYM    DATA     BIT       T3IF
      000000B8H.4 SFRSYM    DATA     BIT       T4IE
      00000090H.6 SFRSYM    DATA     BIT       P1_6
      00000080H.7 SFRSYM    DATA     BIT       P0_7
      000000C0H.4 SFRSYM    DATA     BIT       T4IF
      00000090H.7 SFRSYM    DATA     BIT       P1_7
      000000F2H   SFRSYM    DATA     BYTE      ADCCFG
      000000D0H.7 SFRSYM    DATA     BIT       CY
      000000D5H   SFRSYM    DATA     BYTE      DMA0CFGH
      000000F8H.6 SFRSYM    DATA     BIT       U1RE
      000000D3H   SFRSYM    DATA     BYTE      DMA1CFGH
      000000D4H   SFRSYM    DATA     BYTE      DMA0CFGL
      000000D2H   SFRSYM    DATA     BYTE      DMA1CFGL
      000000C2H   SFRSYM    DATA     BYTE      U0BAUD
      000000A8H.6 SFRSYM    DATA     BIT       _IEN06
      00000081H   SFRSYM    DATA     BYTE      SP
      000000FAH   SFRSYM    DATA     BYTE      U1BAUD
      000000B8H.6 SFRSYM    DATA     BIT       _IEN16
      000000D0H.2 SFRSYM    DATA     BIT       OV
      000000B8H.7 SFRSYM    DATA     BIT       _IEN17
      0000009FH   SFRSYM    DATA     BYTE      FMAP
      0000009EH   SFRSYM    DATA     BYTE      CLKCONSTA
      000000C1H   SFRSYM    DATA     BYTE      U0DBUF
      000000F9H   SFRSYM    DATA     BYTE      U1DBUF
      000000F8H.7 SFRSYM    DATA     BIT       U1MODE
      000000BDH   SFRSYM    DATA     BYTE      RNDH
      000000E8H   SFRSYM    DATA     BYTE      IRCON2
      000000BCH   SFRSYM    DATA     BYTE      RNDL
      00000087H   SFRSYM    DATA     BYTE      PCON
      000000E3H   SFRSYM    DATA     BYTE      T1CNTH
      000000D6H   SFRSYM    DATA     BYTE      DMAARM
      00000088H   SFRSYM    DATA     BYTE      TCON
      000000A8H.5 SFRSYM    DATA     BIT       STIE
      000000C0H.7 SFRSYM    DATA     BIT       STIF
      000000E2H   SFRSYM    DATA     BYTE      T1CNTL
      000000F1H   SFRSYM    DATA     BYTE      PERCFG
LX51 LINKER/LOCATER V4.41                                                             05/23/2018  09:43:07  PAGE 40


      000000C3H   SFRSYM    DATA     BYTE      T2MSEL
      000000A1H   SFRSYM    DATA     BYTE      T2IRQF
      000000D7H   SFRSYM    DATA     BYTE      DMAREQ
      000000C6H   SFRSYM    DATA     BYTE      CLKCON
      00000094H   SFRSYM    DATA     BYTE      T2CTRL
      000000CDH   SFRSYM    DATA     BYTE      T3CC0
      000000B0H   SFRSYM    DATA     BYTE      _SFRB0
      00000099H   SFRSYM    DATA     BYTE      _SFR99
      000000EDH   SFRSYM    DATA     BYTE      T4CC0
      000000CFH   SFRSYM    DATA     BYTE      T3CC1
      000000A8H.2 SFRSYM    DATA     BIT       URX0IE
      0000009CH   SFRSYM    DATA     BYTE      T2CSPCFG
      000000FDH   SFRSYM    DATA     BYTE      P0_DIR
      000000EFH   SFRSYM    DATA     BYTE      T4CC1
      000000E1H   SFRSYM    DATA     BYTE      RFST
      000000D1H   SFRSYM    DATA     BYTE      DMAIRQ
      000000A8H.3 SFRSYM    DATA     BIT       URX1IE
      00000088H.3 SFRSYM    DATA     BIT       URX0IF
      000000FEH   SFRSYM    DATA     BYTE      P1_DIR
      000000F0H   SFRSYM    DATA     BYTE      B
      000000A7H   SFRSYM    DATA     BYTE      T2IRQM
      00000088H.7 SFRSYM    DATA     BIT       URX1IF
      000000FFH   SFRSYM    DATA     BYTE      P2_DIR
      000000F3H   SFRSYM    DATA     BYTE      P0_ALT
      000000E8H.1 SFRSYM    DATA     BIT       UTX0IF
      000000F4H   SFRSYM    DATA     BYTE      P1_ALT
      000000E8H.2 SFRSYM    DATA     BIT       UTX1IF
      000000AFH   SFRSYM    DATA     BYTE      T1STAT
      000000F5H   SFRSYM    DATA     BYTE      P2_ALT
      000000E8H.5 SFRSYM    DATA     BIT       _IRCON25
      000000F8H   SFRSYM    DATA     BIT       U1ACTIVE
      000000E8H.6 SFRSYM    DATA     BIT       _IRCON26
      000000B7H   SFRSYM    DATA     BYTE      _SFRB7
      000000E8H.7 SFRSYM    DATA     BIT       _IRCON27
      000000F8H.2 SFRSYM    DATA     BIT       U1RX_BYTE
      000000E0H   SFRSYM    DATA     BYTE      ACC
      000000C8H   SFRSYM    DATA     BYTE      _SFRC8
      0000009CH   SFRSYM    DATA     BYTE      T2EVTCFG
      000000F8H.1 SFRSYM    DATA     BIT       U1TX_BYTE
      000000BFH   SFRSYM    DATA     BYTE      RFERRF
      000000ADH   SFRSYM    DATA     BYTE      STLOAD
      000000A9H   SFRSYM    DATA     BYTE      IP0
      0000008EH   SFRSYM    DATA     BYTE      _SFR8E
      00000088H.4 SFRSYM    DATA     BIT       _TCON4
      000000C7H   SFRSYM    DATA     BYTE      MEMCTR
      000000B9H   SFRSYM    DATA     BYTE      IP1
      000000AEH   SFRSYM    DATA     BYTE      PMUX
      00000088H.6 SFRSYM    DATA     BIT       _TCON6
      00000088H   SFRSYM    DATA     BIT       IT0
      000000AAH   SFRSYM    DATA     BYTE      _SFRAA
      00000088H.2 SFRSYM    DATA     BIT       IT1
      000000D0H   SFRSYM    DATA     BIT       P
      000000BEH   SFRSYM    DATA     BYTE      SLEEPCMD
      000000D8H.1 SFRSYM    DATA     BIT       T3CH0IF
      000000D8H.2 SFRSYM    DATA     BIT       T3CH1IF
      000000D8H.4 SFRSYM    DATA     BIT       T4CH0IF
      000000D8H.5 SFRSYM    DATA     BIT       T4CH1IF
      000000D0H.3 SFRSYM    DATA     BIT       RS0
      000000D0H.4 SFRSYM    DATA     BIT       RS1
      000000A8H.1 SFRSYM    DATA     BIT       ADCIE
      00000095H   SFRSYM    DATA     BYTE      ST0
      00000089H   SFRSYM    DATA     BYTE      P0IFG
      00000096H   SFRSYM    DATA     BYTE      ST1
      0000008AH   SFRSYM    DATA     BYTE      P1IFG
      00000088H.5 SFRSYM    DATA     BIT       ADCIF
LX51 LINKER/LOCATER V4.41                                                             05/23/2018  09:43:07  PAGE 41


      00000097H   SFRSYM    DATA     BYTE      ST2
      0000008BH   SFRSYM    DATA     BYTE      P2IFG
      000000B4H   SFRSYM    DATA     BYTE      ADCCON1
      000000D9H   SFRSYM    DATA     BYTE      RFD
      000000B5H   SFRSYM    DATA     BYTE      ADCCON2
      000000E5H   SFRSYM    DATA     BYTE      T1CCTL0
      000000B6H   SFRSYM    DATA     BYTE      ADCCON3
      000000ABH   SFRSYM    DATA     BYTE      P0IEN
      000000E6H   SFRSYM    DATA     BYTE      T1CCTL1
      0000008DH   SFRSYM    DATA     BYTE      P1IEN
      000000E7H   SFRSYM    DATA     BYTE      T1CCTL2
      000000CCH   SFRSYM    DATA     BYTE      T3CCTL0
      000000ACH   SFRSYM    DATA     BYTE      P2IEN
      000000FDH   SFRSYM    DATA     BYTE      P0DIR
      000000ECH   SFRSYM    DATA     BYTE      T4CCTL0
      000000CEH   SFRSYM    DATA     BYTE      T3CCTL1
      000000FEH   SFRSYM    DATA     BYTE      P1DIR
      000000EEH   SFRSYM    DATA     BYTE      T4CCTL1
      000000B8H   SFRSYM    DATA     BIT       DMAIE
      000000FFH   SFRSYM    DATA     BYTE      P2DIR
      000000F2H   SFRSYM    DATA     BYTE      APCFG
      000000C5H   SFRSYM    DATA     BYTE      U0GCR
      000000C0H   SFRSYM    DATA     BIT       DMAIF
      000000FCH   SFRSYM    DATA     BYTE      U1GCR
      000000B1H   SFRSYM    DATA     BYTE      ENCDI
      0000009DH   SFRSYM    DATA     BYTE      SLEEPSTA
      00000098H   SFRSYM    DATA     BYTE      S0CON
      000000F3H   SFRSYM    DATA     BYTE      P0SEL
      000000A8H.4 SFRSYM    DATA     BIT       ENCIE
      0000009BH   SFRSYM    DATA     BYTE      S1CON
      000000F4H   SFRSYM    DATA     BYTE      P1SEL
      000000F5H   SFRSYM    DATA     BYTE      P2SEL
      00000092H   SFRSYM    DATA     BYTE      DPS
      0000008FH   SFRSYM    DATA     BYTE      P0INP
      000000F6H   SFRSYM    DATA     BYTE      P1INP
      000000E4H   SFRSYM    DATA     BYTE      T1CTL
      000000F7H   SFRSYM    DATA     BYTE      P2INP
      000000B2H   SFRSYM    DATA     BYTE      ENCDO
      000000CBH   SFRSYM    DATA     BYTE      T3CTL
      00000093H   SFRSYM    DATA     BYTE      MPAGE
      000000EBH   SFRSYM    DATA     BYTE      T4CTL
      000000CAH   SFRSYM    DATA     BYTE      T3CNT
      000000B3H   SFRSYM    DATA     BYTE      ENCCS
      000000EAH   SFRSYM    DATA     BYTE      T4CNT
      00000086H   SFRSYM    DATA     BYTE      U0CSR
      000000F8H   SFRSYM    DATA     BYTE      U1CSR
      000000F8H.3 SFRSYM    DATA     BIT       U1ERR
      000000C4H   SFRSYM    DATA     BYTE      U0UCR
      000000A4H   SFRSYM    DATA     BYTE      T2MOVF0
      000000FBH   SFRSYM    DATA     BYTE      U1UCR
      000000A5H   SFRSYM    DATA     BYTE      T2MOVF1
      000000A6H   SFRSYM    DATA     BYTE      T2MOVF2
      000000D0H.5 SFRSYM    DATA     BIT       F0
      000000D0H.1 SFRSYM    DATA     BIT       F1
      000000A0H.5 SFRSYM    DATA     BIT       _P2_5
      00000098H   SFRSYM    DATA     BIT       ENCIF_0
      00000098H.2 SFRSYM    DATA     BIT       _S0CON2
      000000A0H.6 SFRSYM    DATA     BIT       _P2_6
      00000098H.1 SFRSYM    DATA     BIT       ENCIF_1
      00000098H.3 SFRSYM    DATA     BIT       _S0CON3
      000000A0H.7 SFRSYM    DATA     BIT       _P2_7
      00000098H.4 SFRSYM    DATA     BIT       _S0CON4
      00000098H.5 SFRSYM    DATA     BIT       _S0CON5
      000000D8H   SFRSYM    DATA     BYTE      TIMIF
      000000D0H   SFRSYM    DATA     BYTE      PSW
LX51 LINKER/LOCATER V4.41                                                             05/23/2018  09:43:07  PAGE 42


      000000BEH   SFRSYM    DATA     BYTE      SLEEP
      00000098H.6 SFRSYM    DATA     BIT       _S0CON6
      00000098H.7 SFRSYM    DATA     BIT       _S0CON7
      000000E9H   SFRSYM    DATA     BYTE      RFIRQF0
      000000C0H   SFRSYM    DATA     BYTE      IRCON
      00000091H   SFRSYM    DATA     BYTE      RFIRQF1
      0000008CH   SFRSYM    DATA     BYTE      PICTL
      010076DBH   SYMBOL    CODE     ---       ActiveMessageAddressC__ActiveMessageAddress__changed
      01007612H   SYMBOL    CODE     ---       QueueExC__0__QueueEx__size
      01007776H   SYMBOL    CODE     ---       HalCC2530Uart0IsrP__0__INT_UART0_TX__fired
      01006846H   SYMBOL    CODE     ---       HplCC2530UartGenericP__0__UartStdControl__start
      01006272H   SYMBOL    CODE     ---       TopTaskMgrP__TopTaskMgr__hasTasks
      0100731EH   SYMBOL    CODE     ---       _RfReliableMacPacketP__Packet__setPayloadLength
      010028E6H   SYMBOL    CODE     ---       VirtualizeTimerC__0__updateFromTimer__runTask
      01006EE0H   SYMBOL    CODE     ---       _HalFlashP__HalFlash__read
      010066B3H   SYMBOL    CODE     ---       _VirtualizeTimerC__0__Timer__fired
      0100758CH   SYMBOL    CODE     ---       _AtosNetStdP__AtosNetStd__default__receivedNodeStatusUp
      010030C7H   SYMBOL    CODE     ---       _RfReliableMacSendP__0__ReceiveAck__receive
      01002F0EH   SYMBOL    CODE     ---       _RfReliableMacSendP__1__ReceiveAck__receive
      01007487H   SYMBOL    CODE     ---       _RfPacketP__AMPacket__group
      01005E5FH   SYMBOL    CODE     ---       SchedulerBasicP__popTask
      010044B5H   SYMBOL    CODE     ---       TransformCounterC__0__Counter__get
      01004ACEH   SYMBOL    CODE     ---       TransformCounterC__1__Counter__get
      01006D5CH   SYMBOL    CODE     ---       DsnFilterCenterP__0__Init__init
      010057DCH   SYMBOL    CODE     ---       FlashIEEEP__FlashIEEE__WriteToRegister
      01006EC1H   SYMBOL    CODE     ---       _uart0Init
      0100722CH   SYMBOL    CODE     ---       _RfHardwareTxP__RfHardwareTx__txPrepare
      0100464DH   SYMBOL    CODE     ---       _RfReliableMacSendP__0__AMSend__send
      010059B9H   SYMBOL    CODE     ---       DsnFilterCenterP__0__findNextAddress
      01004582H   SYMBOL    CODE     ---       _RfReliableMacSendP__1__AMSend__send
      010076D4H   SYMBOL    CODE     ---       RfConfigP__writeFIFOPThrehold
      0100696CH   SYMBOL    CODE     ---       _TransformAlarmC__1__Alarm__start
      01006422H   SYMBOL    CODE     ---       TransformAlarmC__0__Alarm__getAlarm
      0100622EH   SYMBOL    CODE     ---       _RfReliableMacSendP__0__signalDone
      010068D9H   SYMBOL    CODE     ---       _RfPacketP__AMPacket__isForMe
      0100776FH   SYMBOL    CODE     ---       RfPowerP__RfPower__reset
      01007751H   SYMBOL    CODE     ---       __nesc_enable_interrupt
      01005FC1H   SYMBOL    CODE     ---       _RfReliableMacSendP__1__signalDone
      010070F7H   SYMBOL    CODE     ---       RfReliableMacRetrySendP__0__AtosControl__start
      01007110H   SYMBOL    CODE     ---       RfReliableMacRetrySendP__1__AtosControl__start
      010073ABH   SYMBOL    CODE     ---       _RfReliableMacAckP__RfReliableMacAckEvent__default__fillAckMessage
      01005B13H   SYMBOL    CODE     ---       _RfReliableMacPacketP__Packet__getPayload
      0100764EH   SYMBOL    CODE     ---       RfPowerP__RfPower__rxOn
      01007496H   SYMBOL    CODE     ---       _RfActiveMessageP__Receive__default__receive
      01007766H   SYMBOL    CODE     ---       PlatformInterruptC__INT_ST__default__fired
      0100664DH   SYMBOL    CODE     ---       _HalFlashP__HalFlash__write
      010076E1H   SYMBOL    CODE     ---       ActiveMessageAddressC__ActiveMessageAddress__amGroup
      010053E0H   SYMBOL    CODE     ---       _FlashIEEEP__FlashIEEE__WriteIEEE
      01005D84H   SYMBOL    CODE     ---       ATOS_DEBUG_UART_PRINT
      01007469H   SYMBOL    CODE     ---       RfConfigP__writeChannel
      010072C0H   SYMBOL    CODE     ---       SchedulerBasicP__Scheduler__runNextTask
      010072ACH   SYMBOL    CODE     ---       _AtosNetStdP__AMSend__sendDone
      01004FDFH   SYMBOL    CODE     ---       _RfMacBaseSendP__0__SubCoreSend__sendDone
      010071A2H   SYMBOL    CODE     ---       ActiveMessageAddressC__amAddress
      01003280H   SYMBOL    CODE     ---       _DigBaseP__Receive__receive
      01005EEEH   SYMBOL    CODE     ---       _DsnFilterCenterP__0__indexOfAddress
      01007608H   SYMBOL    CODE     ---       _RfPacketP__AMPacket__setSource
      010075DDH   SYMBOL    CODE     ---       _RfPacketP__AMPacket__type
      01006BAFH   SYMBOL    CODE     ---       HplCC2530Timer1P__0__Counter__get
      010071FFH   SYMBOL    CODE     ---       CC2530RandomLfsrP__Random__rand16
      01007568H   SYMBOL    CODE     ---       _AtosNetStdP__AtosNetStd__default__receivedReboot
      01007378H   SYMBOL    CODE     ---       _RfPacketP__Packet__payloadLength
      010067E4H   SYMBOL    CODE     ---       VirtualizeTimerC__0__TimerFrom__fired
      0100645DH   SYMBOL    CODE     ---       TopTaskMgrP__TopTaskMgr__runTasks
      01005BB7H   SYMBOL    CODE     ---       RfMacBaseCsmaP__doGo__runTask
LX51 LINKER/LOCATER V4.41                                                             05/23/2018  09:43:07  PAGE 43


      0100755CH   SYMBOL    CODE     ---       _AtosNetStdP__AtosNetStd__default__receivedTrace
      010062F4H   SYMBOL    CODE     ---       _RfReliableMacAckP__RfReliableMacAck__receiveAckMessage
      01001EC2H   SYMBOL    CODE     ---       _uart0SetBaud
      01004077H   SYMBOL    CODE     ---       FlashIEEEP__ieeeProtect
      0100774BH   SYMBOL    CODE     ---       RfConfigP__RfConfig__flush
      01003702H   SYMBOL    CODE     ---       _AMResourceCenterP__AMResource__send
      0100569DH   SYMBOL    CODE     ---       HplCC2530UartGenericP__0__Uart__putDone
      01007771H   SYMBOL    CODE     ---       McuSleepP__McuSleepControl__default__beforeSleep
      01005DCEH   SYMBOL    CODE     ---       _RfMacBaseSendP__0__enqueueMessage
      01007507H   SYMBOL    CODE     ---       RfHardwareRxP__0__InterruptRFErr__fired
      010069FBH   SYMBOL    CODE     ---       _AlarmToTimerC__0__Timer__startOneShotAt
      01005549H   SYMBOL    CODE     ---       RfHardwareRxP__0__receiveNextPacket
      0100773FH   SYMBOL    CODE     ---       TransformAlarmC__0__Alarm__stop
      0100699CH   SYMBOL    CODE     ---       _PlatformP__clockSelect32k
      0100774EH   SYMBOL    CODE     ---       TransformAlarmC__1__Alarm__stop
      0100776CH   SYMBOL    CODE     ---       FlashIEEEP__ActiveMessageAddress__changed
      01007129H   SYMBOL    CODE     ---       RfMacBaseCsmaP__congestion
      0100775DH   SYMBOL    CODE     ---       RfReliableMacPacketP__PacketEx__packetHeaderSize
      01004308H   SYMBOL    CODE     ---       _RfReliableMacRetrySendP__0__AMSend__send
      0100422EH   SYMBOL    CODE     ---       _RfReliableMacRetrySendP__1__AMSend__send
      01006C2AH   SYMBOL    CODE     ---       _FlashIEEEP__FlashIEEE__GetIEEE
      01007673H   SYMBOL    CODE     ---       _HalCC2530Uart0IsrP__0__doUart0Init
      0100693BH   SYMBOL    CODE     ---       _RfReliableMacRetrySendP__0__signalDone
      010076BFH   SYMBOL    CODE     ---       uart0SetMode
      0100690AH   SYMBOL    CODE     ---       _RfReliableMacRetrySendP__1__signalDone
      0100545BH   SYMBOL    CODE     ---       _AMResourceCenterP__AMResource__sendDone
      0100726DH   SYMBOL    CODE     ---       _RfReliableMacPacketP__PacketEx__getPacketHeader
      01007748H   SYMBOL    CODE     ---       HalFlashP__Init__init
      01007697H   SYMBOL    CODE     ---       QueueExC__0__QueueEx__maxSize
      01006F79H   SYMBOL    CODE     ---       _AtosNetStdP__receiveDiscovery
      010043E1H   SYMBOL    CODE     ---       _DsnFilterCenterP__0__filterDsn
      010073CDH   SYMBOL    CODE     ---       FlashIEEEP__Init__init
      01007354H   SYMBOL    CODE     ---       _DigBaseP__UartStream__sendDone
      010073EDH   SYMBOL    CODE     ---       _RfPacketP__AMPacket__setDestination
      0100752CH   SYMBOL    CODE     ---       _AtosNetStdP__AtosNetStd__default__beforeNodeStatusUp
      010075FEH   SYMBOL    CODE     ---       RfPacketP__ActiveMessageAddress__changed
      010076EDH   SYMBOL    CODE     ---       _VirtualizeTimerC__0__Timer__default__fired
      01006BD9H   SYMBOL    CODE     ---       _uart0PutChar
      01005CEEH   SYMBOL    CODE     ---       _AtosNetStdP__traceEnd
      01007550H   SYMBOL    CODE     ---       _AtosNetStdP__AtosNetStd__default__receivedTraceAck
      01007042H   SYMBOL    CODE     ---       RfReliableMacReceiveP__0__AtosControl__start
      01004CDBH   SYMBOL    CODE     ---       DigBaseP__showMenu__runTask
      0100705DH   SYMBOL    CODE     ---       RfReliableMacReceiveP__1__AtosControl__start
      01007092H   SYMBOL    CODE     ---       _RfPacketP__PacketEx__isValidPacket
      01006A28H   SYMBOL    CODE     ---       AtosMacP__AtosControl__start
      010072E7H   SYMBOL    CODE     ---       RfInterruptsP__INT_RFERR__fired
      01006542H   SYMBOL    CODE     ---       _RfHardwareRxP__0__readRfBuf
      01007520H   SYMBOL    CODE     ---       _RfPacketP__AMPacket__setGroup
      01006F5BH   SYMBOL    CODE     ---       RfMacBaseCsmaP__signalDoneTask__runTask
      01006C02H   SYMBOL    CODE     ---       _QueueExC__0__QueueEx__element
      0100773CH   SYMBOL    CODE     ---       _AMResourceP__0__AMResource__sendDone
      01007770H   SYMBOL    CODE     ---       McuSleepP__McuSleepControl__default__afterWakeup
      010069CCH   SYMBOL    CODE     ---       _AtosNetStdP__receiveSetIEEE
      0100767CH   SYMBOL    CODE     ---       RfConfigP__writeTxPower
      01007739H   SYMBOL    CODE     ---       _AMResourceP__1__AMResource__sendDone
      01006B31H   SYMBOL    CODE     ---       RfConfigP__Init__init
      01005C07H   SYMBOL    CODE     ---       HalCC2530Uart0IsrP__0__RxTaskHandler__handler
      01007736H   SYMBOL    CODE     ---       _AMResourceP__2__AMResource__sendDone
      01007733H   SYMBOL    CODE     ---       _AMResourceP__3__AMResource__sendDone
      01007757H   SYMBOL    CODE     ---       HalCC2530Uart0IsrP__0__TxTaskHandler__handler
      01006498H   SYMBOL    CODE     ---       QueueExC__0__QueueEx__dequeue
      01006D81H   SYMBOL    CODE     ---       McuSleepP__McuSleep__sleep
      01006C78H   SYMBOL    CODE     ---       _TopTaskMgrP__TopTaskHandler__handler
      010067B2H   SYMBOL    CODE     ---       RfPowerP__RfPower__radioOn
      01005774H   SYMBOL    CODE     ---       _DigBaseP__AMSend__sendDone
LX51 LINKER/LOCATER V4.41                                                             05/23/2018  09:43:07  PAGE 44


      010072D4H   SYMBOL    CODE     ---       ___nesc_hton_leuint8
      010074D2H   SYMBOL    CODE     ---       ___nesc_ntoh_leuint8
      0100495CH   SYMBOL    CODE     ---       _AtosNetStdP__AtosNetStd__sendNodeStatusUp
      010076F3H   SYMBOL    CODE     ---       _McuSleepP__ModuleReset__default__reset
      01006A55H   SYMBOL    CODE     ---       _SchedulerBasicP__TaskBasic__postTask
      010075BCH   SYMBOL    CODE     ---       ATOS_DEBUG_UART_INIT
      01005843H   SYMBOL    CODE     ---       _AtosNetStdP__traceBackward
      010070ACH   SYMBOL    CODE     ---       SchedulerBasicP__Scheduler__init
      01007514H   SYMBOL    CODE     ---       _uart0PinMap
      01007742H   SYMBOL    CODE     ---       AlarmToTimerC__0__Timer__stop
      010076F9H   SYMBOL    CODE     ---       TransformCounterC__0__Counter__overflow
      010075D2H   SYMBOL    CODE     ---       AtosNetStdP__nodeStatusUpTask__runTask
      0100766AH   SYMBOL    CODE     ---       RfReliableMacReceiveP__0__sendAckTask__runTask
      01006160H   SYMBOL    CODE     ---       RfPacketP__AMPacket__address
      010070DEH   SYMBOL    CODE     ---       _VirtualizeTimerC__0__Timer__stop
      01006331H   SYMBOL    CODE     ---       HplCC2530Timer1P__0__Init__init
      01006DEFH   SYMBOL    CODE     ---       RfConfigP__writeFilter
      01007661H   SYMBOL    CODE     ---       RfReliableMacReceiveP__1__sendAckTask__runTask
      01005ABFH   SYMBOL    CODE     ---       _RfReliableMacSendP__0__SubAMSend__sendDone
      01007772H   SYMBOL    CODE     ---       CounterToLocalTimeC__0__Counter__overflow
      01005A6BH   SYMBOL    CODE     ---       _RfReliableMacSendP__1__SubAMSend__sendDone
      010074EDH   SYMBOL    CODE     ---       RfInterruptsP__InterruptRFErr__enableRisingEdge
      01006FD1H   SYMBOL    CODE     ---       RfHardwareRxP__0__StdControl__start
      01006007H   SYMBOL    CODE     ---       _QueueExC__0__QueueEx__enqueue
      01007626H   SYMBOL    CODE     ---       RfReliableMacSendP__0__TimeoutTimer__fired
      01007282H   SYMBOL    CODE     ---       _ATOS_DEBUG_UART_PUTC
      0100763AH   SYMBOL    CODE     ---       RfReliableMacSendP__1__TimeoutTimer__fired
      01006FB4H   SYMBOL    CODE     ---       _TransformAlarmC__0__Alarm__startAt
      01007754H   SYMBOL    CODE     ---       RfPacketP__Packet__maxPayloadLength
      01006F97H   SYMBOL    CODE     ---       _TransformAlarmC__1__Alarm__startAt
      01006EA1H   SYMBOL    CODE     ---       _AtosNetStdP__receiveNodeStatusUp
      0100768EH   SYMBOL    CODE     ---       _HplCC2530Timer1P__0__CaptureChannel2__default__captured
      01007745H   SYMBOL    CODE     ---       AtosNetStdP__RebootTimer__fired
      010058A7H   SYMBOL    CODE     ---       FlashIEEEP__readFromFlash
      010050EEH   SYMBOL    CODE     ---       _SchedulerBasicP__TaskBasic__runTask
      01005067H   SYMBOL    CODE     ---       DigBaseP__getDestAddress
      0100611BH   SYMBOL    CODE     ---       RfInterruptsP__INT_RF__fired
      01004EB3H   SYMBOL    CODE     ---       AtosNetStdP__sendDoneCheck__runTask
      0100741DH   SYMBOL    CODE     ---       AMResourceCenterP__AtosControl__start
      01007544H   SYMBOL    CODE     ---       RfConfigP__RfConfigWrite
      010076C6H   SYMBOL    CODE     ---       _RfPacketP__Packet__setPayloadLength
      01007773H   SYMBOL    CODE     ---       TransformAlarmC__0__Counter__overflow
      01007774H   SYMBOL    CODE     ---       TransformAlarmC__1__Counter__overflow
      0100740DH   SYMBOL    CODE     ---       _ecombine
      01006FEEH   SYMBOL    CODE     ---       RfMacBaseSendP__0__AtosControl__start
      01007775H   SYMBOL    CODE     ---       HplCC2530Timer1P__0__Alarm2__default__fired
      010073DDH   SYMBOL    CODE     ---       _ActiveMessageAddressC__ActiveMessageAddress__setAddress
      0100674CH   SYMBOL    CODE     ---       FlashIEEEP__FlashIEEE__WriteToAM
      01007727H   SYMBOL    CODE     ---       ActiveMessageAddressC__ActiveMessageAddress__amAddress
      010062B6H   SYMBOL    CODE     ---       _PlatformP__clockSetMainSrc
      01007598H   SYMBOL    CODE     ---       _RfReliableMacAckP__RfReliableMacAckEvent__default__receiveAckMessage
      01007389H   SYMBOL    CODE     ---       QueueExC__0__QueueEx__clear
      01006680H   SYMBOL    CODE     ---       RfMacBaseCsmaP__initBackoffTimer
      010076FFH   SYMBOL    CODE     ---       HplCC2530Timer1P__0__Counter__overflow
      010060D6H   SYMBOL    CODE     ---       RfReliableMacSendP__0__signalDoneTask__runTask
      01006E37H   SYMBOL    CODE     ---       WatchDogP__WatchDog__resetCpu
      01006091H   SYMBOL    CODE     ---       RfReliableMacSendP__1__signalDoneTask__runTask
      01007142H   SYMBOL    CODE     ---       TransformAlarmC__0__Alarm__getNow
      0100341FH   SYMBOL    CODE     ---       _VirtualizeTimerC__0__fireTimers
      01007172H   SYMBOL    CODE     ---       TransformAlarmC__1__Alarm__getNow
      0100745AH   SYMBOL    CODE     ---       RfHardwareTxP__StdControl__start
      010074A5H   SYMBOL    CODE     ---       _AMResourceCenterP__AMResource__default__sendDone
      0100604CH   SYMBOL    CODE     ---       _SchedulerBasicP__isWaiting
      01007297H   SYMBOL    CODE     ---       _RfReliableMacPacketP__Packet__payloadLength
      010063AAH   SYMBOL    CODE     ---       RfHardwareRxP__0__InterruptFIFOP__fired
LX51 LINKER/LOCATER V4.41                                                             05/23/2018  09:43:07  PAGE 45


      01005D39H   SYMBOL    CODE     ---       TransformCounterC__0__CounterFrom__overflow
      01006579H   SYMBOL    CODE     ---       _DsnFilterCenterP__0__DsnFilter__filter
      0100742DH   SYMBOL    CODE     ---       AtosNetStdP__rebootTask__runTask
      010061A5H   SYMBOL    CODE     ---       _RfPacketP__Packet__getPayload
      01006B06H   SYMBOL    CODE     ---       TransformCounterC__1__CounterFrom__overflow
      01006B5BH   SYMBOL    CODE     ---       RfMacBaseCsmaP__AtosControl__start
      01004D7BH   SYMBOL    CODE     ---       _QueueExC__0__QueueEx__remove
      0100526BH   SYMBOL    CODE     ---       RfMacBaseSendP__0__sendNext__runTask
      010061EAH   SYMBOL    CODE     ---       SchedulerBasicP__Scheduler__taskLoop
      01006D37H   SYMBOL    CODE     ---       QueueExC__0__QueueEx__head
      010075C7H   SYMBOL    CODE     ---       HplCC2530Timer1P__0__Counter__isOverflowPending
      010055BDH   SYMBOL    CODE     ---       _AtosNetStdP__indexOfTraceItem
      01003CB0H   SYMBOL    CODE     ---       _RfReliableMacReceiveP__0__SubReceive__receive
      01007330H   SYMBOL    CODE     ---       _RfReliableMacRetrySendP__0__SubAMSend__sendDone
      01003967H   SYMBOL    CODE     ---       _DigBaseP__UartStream__receivedByte
      01007026H   SYMBOL    CODE     ---       _AtosNetStdP__receiveReboot
      010066E6H   SYMBOL    CODE     ---       RfMacBaseCsmaP__congestionBackoffTimer
      01003B9CH   SYMBOL    CODE     ---       _RfReliableMacReceiveP__1__SubReceive__receive
      0100730CH   SYMBOL    CODE     ---       _RfReliableMacRetrySendP__1__SubAMSend__sendDone
      0100772BH   SYMBOL    CODE     ---       HplCC2530Timer1P__0__Alarm0__stop
      01007478H   SYMBOL    CODE     ---       _RfActiveMessageP__Snoop__default__receive
      0100772FH   SYMBOL    CODE     ---       HplCC2530Timer1P__0__Alarm1__stop
      010051EDH   SYMBOL    CODE     ---       _VirtualizeTimerC__0__Timer__startPeriodic
      01003EAFH   SYMBOL    CODE     ---       _AtosNetStdP__receiveTrace
      010064D1H   SYMBOL    CODE     ---       AtosMacP__SubAtosControl__start
      01004C35H   SYMBOL    CODE     ---       _RfReliableMacAckP__RfReliableMacAck__fillAckMessage
      01006619H   SYMBOL    CODE     ---       _RfMacBaseSendP__0__CoreSend__send
      0100743CH   SYMBOL    CODE     ---       _RfReliableMacReceiveP__0__AMSendAck__sendDone
      01005EA7H   SYMBOL    CODE     ---       _AlarmToTimerC__0__start
      0100744BH   SYMBOL    CODE     ---       _RfReliableMacReceiveP__1__AMSendAck__sendDone
      01007538H   SYMBOL    CODE     ---       HalCC2530Uart0IsrP__0__uart0StdControl__start
      01007705H   SYMBOL    CODE     ---       _TopTaskMgrP__TopTaskHandler__default__handler
      0100595FH   SYMBOL    CODE     ---       HplCC2530Timer1P__0__TopTaskHandler__handler
      01006DCBH   SYMBOL    CODE     ---       _AMResourceCenterP__CoreSend__sendDone
      01007760H   SYMBOL    CODE     ---       PlatformInterruptC__INT_UART1_RX__default__fired
      0100761CH   SYMBOL    CODE     ---       RfReliableMacSendP__0__AckTimer__fired
      01005F7BH   SYMBOL    CODE     ---       RfReliableMacRetrySendP__0__resendTask__runTask
      01007258H   SYMBOL    CODE     ---       ___nesc_hton_uint8
      010072FAH   SYMBOL    CODE     ---       ___nesc_ntoh_uint8
      0100650AH   SYMBOL    CODE     ---       _RfReliableMacAckP__fillAckMessageDefault
      01007630H   SYMBOL    CODE     ---       RfReliableMacSendP__1__AckTimer__fired
      01005F35H   SYMBOL    CODE     ---       RfReliableMacRetrySendP__1__resendTask__runTask
      01003DBEH   SYMBOL    CODE     ---       _RfMacBaseReceiveP__RfHardwareRx__rxPacket
      01007763H   SYMBOL    CODE     ---       PlatformInterruptC__INT_UART1_TX__default__fired
      01003845H   SYMBOL    CODE     ---       _RfActiveMessageP__Receive__receive
      01006B85H   SYMBOL    CODE     ---       RfMacBaseCsmaP__BackoffTimer__fired
      01007342H   SYMBOL    CODE     ---       _DigBaseP__UartStream__receiveDone
      010070C5H   SYMBOL    CODE     ---       ___nesc_hton_leuint16
      01006F3DH   SYMBOL    CODE     ---       ___nesc_ntoh_leuint16
      010054D4H   SYMBOL    CODE     ---       _VirtualizeTimerC__0__startTimer
      01002B72H   SYMBOL    CODE     ---       TransformAlarmC__0__set_alarm
      01005A13H   SYMBOL    CODE     ---       _AMResourceP__0__AMSend__send
      01003F96H   SYMBOL    CODE     ---       HplCC2530Timer1P__0__INT_TIM1__fired
      01002D4AH   SYMBOL    CODE     ---       TransformAlarmC__1__set_alarm
      01005CA3H   SYMBOL    CODE     ---       _AMResourceP__1__AMSend__send
      010074FAH   SYMBOL    CODE     ---       RfActiveMessageP__AtosControl__start
      01007366H   SYMBOL    CODE     ---       _RfPacketP__AMPacket__source
      01007242H   SYMBOL    CODE     ---       RfHardwareRxP__0__AtosScheduler__periodScheduler
      01004B85H   SYMBOL    CODE     ---       _RfMacBaseCsmaP__CoreSend__send
      01005C56H   SYMBOL    CODE     ---       _AMResourceP__2__AMSend__send
      01007580H   SYMBOL    CODE     ---       _AtosNetStdP__AtosNetStd__default__receivedDiscovery
      0100677FH   SYMBOL    CODE     ---       _RfReliableMacPacketP__PacketEx__isValidPacket
      0100770BH   SYMBOL    CODE     ---       PlatformInterruptC__INT_P0__default__fired
      010076CDH   SYMBOL    CODE     ---       uart0IntEnable
      01005905H   SYMBOL    CODE     ---       _AMResourceP__3__AMSend__send
LX51 LINKER/LOCATER V4.41                                                             05/23/2018  09:43:07  PAGE 46


      0100775AH   SYMBOL    CODE     ---       RfPacketP__PacketEx__packetHeaderSize
      01007711H   SYMBOL    CODE     ---       PlatformInterruptC__INT_P1__default__fired
      010075F3H   SYMBOL    CODE     ---       FlashIEEEP__FlashIEEE__GetShortAddress
      01006AAFH   SYMBOL    CODE     ---       PlatformP__Init__init
      0100776EH   SYMBOL    CODE     ---       RfPowerP__RfPower__oscOn
      0100715AH   SYMBOL    CODE     ---       AlarmToTimerC__0__Timer__getNow
      0100636EH   SYMBOL    CODE     ---       RfHardwareTxP__RfHardwareTx__txGo
      01006C51H   SYMBOL    CODE     ---       RfHardwareRxP__0__TopTaskHandler__handler
      0100516EH   SYMBOL    CODE     ---       _VirtualizeTimerC__0__Timer__startOneShot
      01007722H   SYMBOL    CODE     ---       AlarmToTimerC__0__Alarm__fired
      0100771DH   SYMBOL    CODE     ---       RealMainP__FakeTimer__fired
      01004153H   SYMBOL    CODE     ---       _AtosNetStdP__receiveTraceAck
      010071E8H   SYMBOL    CODE     ---       _RfMacBaseCsmaP__signalDone
      010071BAH   SYMBOL    CODE     ---       ___nesc_hton_int8
      0100739AH   SYMBOL    CODE     ---       ___nesc_ntoh_int8
      0100489FH   SYMBOL    CODE     ---       _AtosNetStdP__traceForward
      01006ADBH   SYMBOL    CODE     ---       _RfHardwareTxP__writeTxfifo
      01007717H   SYMBOL    CODE     ---       _SchedulerBasicP__TaskBasic__default__runTask
      01005365H   SYMBOL    CODE     ---       CC2530RandomLfsrP__Init__init
      0100718AH   SYMBOL    CODE     ---       RfHardwareP__AtosControl__start
      01007574H   SYMBOL    CODE     ---       _AtosNetStdP__AtosNetStd__default__receivedSetIEEE
      010035B7H   SYMBOL    CODE     ---       _AtosNetStdP__Receive__receive
      01004A16H   SYMBOL    CODE     ---       _RfActiveMessageP__CoreReceive__receive
      01006D12H   SYMBOL    CODE     ---       RfPacketP__AMPacket__localGroup
      01007644H   SYMBOL    CODE     ---       RfInterruptsP__InterruptFIFOP__enableRisingEdge
      01007078H   SYMBOL    CODE     ---       RfReliableMacSendP__0__AtosControl__start
      010073BCH   SYMBOL    CODE     ---       _AtosNetStdP__Packet__payloadLength
      0100700AH   SYMBOL    CODE     ---       RfReliableMacSendP__1__AtosControl__start
      01005709H   SYMBOL    CODE     ---       _RfMacBaseSendP__0__indexOfMessage
      010073FDH   SYMBOL    CODE     ---       QueueExC__0__QueueEx__empty
      010071D1H   SYMBOL    CODE     ---       _HalCC2530Uart0IsrP__0__uart0__put
      0100562EH   SYMBOL    CODE     ---       _SchedulerBasicP__pushTask
      01006DA6H   SYMBOL    CODE     ---       _HalFlashP__HalFlash__erase
      010076E7H   SYMBOL    CODE     ---       RfConfigP__RfConfig__getChannel
      010047DEH   SYMBOL    CODE     ---       _HplCC2530Timer1P__0__Alarm0__startAt
      010075E8H   SYMBOL    CODE     ---       FlashIEEEP__FlashIEEE__GetPANID
      01006CECH   SYMBOL    CODE     ---       _RfReliableMacReceiveP__0__sendAck
      01004F4DH   SYMBOL    CODE     ---       _HplCC2530Timer1P__0__Alarm1__startAt
      01007769H   SYMBOL    CODE     ---       __nesc_disable_interrupt
      01006CC6H   SYMBOL    CODE     ---       _RfReliableMacReceiveP__1__sendAck
      01007685H   SYMBOL    CODE     ---       RfReliableMacPacketP__Packet__maxPayloadLength
      010065E4H   SYMBOL    CODE     ---       _RfReliableMacRetrySendP__0__doSend
      010052E9H   SYMBOL    CODE     ---       _HplCC2530UartGenericP__0__Uart__get
      01003A83H   SYMBOL    CODE     ---       DigBaseP__sendData__runTask
      010065AFH   SYMBOL    CODE     ---       _RfReliableMacRetrySendP__1__doSend
      010074E0H   SYMBOL    CODE     ---       _RfPacketP__AMPacket__destination
      010068A8H   SYMBOL    CODE     ---       TransformAlarmC__0__AlarmFrom__fired
      0100776DH   SYMBOL    CODE     ---       RealMainP__fakeTask__runTask
      01004718H   SYMBOL    CODE     ---       DigBaseP__Boot__booted
      01006877H   SYMBOL    CODE     ---       TransformAlarmC__1__AlarmFrom__fired
      01006E13H   SYMBOL    CODE     ---       HalCC2530Uart0IsrP__0__INT_UART0_RX__fired
      01006815H   SYMBOL    CODE     ---       RealMainP__SoftwareInit__init
      01005E17H   SYMBOL    CODE     ---       AlarmToTimerC__0__firedTask__runTask

      01007216H   BLOCK     CODE     ---       LVL=0
      ---         BLOCKEND  ---      ---       LVL=0

      01007224H   BLOCK     CODE     ---       LVL=0
      00000007H   SYMBOL    DATA     BYTE      tmp
      01007224H   BLOCK     CODE     NEAR LAB  LVL=1
      00000007H   SYMBOL    DATA     BYTE      tmp
      ---         BLOCKEND  ---      ---       LVL=1
      01007224H   LINE      CODE     ---       #4521
      01007224H   LINE      CODE     ---       #4523
      01007224H   LINE      CODE     ---       #4524
LX51 LINKER/LOCATER V4.41                                                             05/23/2018  09:43:07  PAGE 47


      01007229H   LINE      CODE     ---       #4527
      0100722BH   LINE      CODE     ---       #4528
      0100722BH   LINE      CODE     ---       #4529
      ---         BLOCKEND  ---      ---       LVL=0

      01007658H   BLOCK     CODE     ---       LVL=0
      ---         BLOCKEND  ---      ---       LVL=0

      0100765BH   BLOCK     CODE     ---       LVL=0
      00000007H   SYMBOL    DATA     BYTE      oldSreg
      0100765BH   LINE      CODE     ---       #4531
      0100765BH   LINE      CODE     ---       #4533
      0100765BH   LINE      CODE     ---       #4534
      01007660H   LINE      CODE     ---       #4535
      ---         BLOCKEND  ---      ---       LVL=0

      010070ACH   BLOCK     CODE     ---       LVL=0
      010070ACH   LINE      CODE     ---       #4538
      010070ACH   LINE      CODE     ---       #4539
      010070ACH   LINE      CODE     ---       #4541
      010070ACH   LINE      CODE     ---       #4548
      010070BBH   LINE      CODE     ---       #4549
      010070C0H   LINE      CODE     ---       #4550
      010070C4H   LINE      CODE     ---       #4551
      010070C4H   LINE      CODE     ---       #4552
      ---         BLOCKEND  ---      ---       LVL=0

      010073CDH   BLOCK     CODE     ---       LVL=0
      010073D6H   BLOCK     CODE     NEAR LAB  LVL=1
      02000732H   SYMBOL    XDATA    BYTE      __nesc_temp
      ---         BLOCKEND  ---      ---       LVL=1
      010073CDH   LINE      CODE     ---       #4557
      010073CDH   LINE      CODE     ---       #4558
      010073CDH   LINE      CODE     ---       #4560
      010073CDH   LINE      CODE     ---       #4563
      010073D0H   LINE      CODE     ---       #4565
      010073D3H   LINE      CODE     ---       #4566
      010073D6H   LINE      CODE     ---       #4568
      010073D6H   LINE      CODE     ---       #4569
      010073DBH   LINE      CODE     ---       #4574
      010073DCH   LINE      CODE     ---       #4575
      010073DCH   LINE      CODE     ---       #4576
      010073DCH   LINE      CODE     ---       #4577
      ---         BLOCKEND  ---      ---       LVL=0

      010076BFH   BLOCK     CODE     ---       LVL=0
      010076BFH   LINE      CODE     ---       #4582
      010076BFH   LINE      CODE     ---       #4583
      010076BFH   LINE      CODE     ---       #4584
      010076C2H   LINE      CODE     ---       #4585
      010076C5H   LINE      CODE     ---       #4586
      ---         BLOCKEND  ---      ---       LVL=0

      01007514H   BLOCK     CODE     ---       LVL=0
      02000737H   SYMBOL    XDATA    BYTE      map
      01007514H   LINE      CODE     ---       #4589
      01007519H   LINE      CODE     ---       #4590
      01007519H   LINE      CODE     ---       #4594
      0100751CH   LINE      CODE     ---       #4596
      0100751FH   LINE      CODE     ---       #4597
      ---         BLOCKEND  ---      ---       LVL=0

      01006EC1H   BLOCK     CODE     ---       LVL=0
      02000733H   SYMBOL    XDATA    DWORD     baud
      01006EC1H   LINE      CODE     ---       #4605
LX51 LINKER/LOCATER V4.41                                                             05/23/2018  09:43:07  PAGE 48


      01006EC7H   LINE      CODE     ---       #4606
      01006EC7H   LINE      CODE     ---       #4607
      01006ECCH   LINE      CODE     ---       #4608
      01006EDDH   LINE      CODE     ---       #4609
      ---         BLOCKEND  ---      ---       LVL=0

      010075BCH   BLOCK     CODE     ---       LVL=0
      010075BCH   LINE      CODE     ---       #4613
      010075BCH   LINE      CODE     ---       #4614
      010075BCH   LINE      CODE     ---       #4615
      010075BCH   LINE      CODE     ---       #4617
      ---         BLOCKEND  ---      ---       LVL=0

      01006AAFH   BLOCK     CODE     ---       LVL=0
      01006AAFH   LINE      CODE     ---       #4624
      01006AAFH   LINE      CODE     ---       #4626
      01006AAFH   LINE      CODE     ---       #4629
      01006AB7H   LINE      CODE     ---       #4630
      01006ABCH   LINE      CODE     ---       #4631
      01006AC1H   LINE      CODE     ---       #4632
      01006AC1H   LINE      CODE     ---       #4633
      01006AC1H   LINE      CODE     ---       #4635
      01006AC6H   LINE      CODE     ---       #4638
      01006AC9H   LINE      CODE     ---       #4642
      01006AC9H   LINE      CODE     ---       #4644
      01006AC9H   LINE      CODE     ---       #4646
      01006ACCH   LINE      CODE     ---       #4648
      01006ACFH   LINE      CODE     ---       #4649
      01006ACFH   LINE      CODE     ---       #4653
      01006ACFH   LINE      CODE     ---       #4655
      01006AD2H   LINE      CODE     ---       #4657
      01006AD5H   LINE      CODE     ---       #4658
      01006AD5H   LINE      CODE     ---       #4661
      01006AD5H   LINE      CODE     ---       #4665
      01006AD8H   LINE      CODE     ---       #4667
      01006ADAH   LINE      CODE     ---       #4668
      ---         BLOCKEND  ---      ---       LVL=0

      0100664DH   BLOCK     CODE     ---       LVL=0
      ---         BLOCKEND  ---      ---       LVL=0

      01006653H   BLOCK     CODE     ---       LVL=0
      00000004H   SYMBOL    DATA     DWORD     destination
      02000788H   SYMBOL    XDATA    ---       source
      0200078BH   SYMBOL    XDATA    WORD      length
      01006653H   LINE      CODE     ---       #4673
      0100665EH   LINE      CODE     ---       #4674
      0100665EH   LINE      CODE     ---       #4675
      0100667DH   LINE      CODE     ---       #4677
      0100667FH   LINE      CODE     ---       #4678
      ---         BLOCKEND  ---      ---       LVL=0

      01006EE0H   BLOCK     CODE     ---       LVL=0
      ---         BLOCKEND  ---      ---       LVL=0

      01006EE6H   BLOCK     CODE     ---       LVL=0
      00000001H   SYMBOL    DATA     ---       destination
      00000004H   SYMBOL    DATA     DWORD     source
      0200078BH   SYMBOL    XDATA    WORD      length
      01006EE6H   LINE      CODE     ---       #4686
      01006EE6H   LINE      CODE     ---       #4687
      01006EE6H   LINE      CODE     ---       #4688
      01006EFCH   LINE      CODE     ---       #4690
      01006EFEH   LINE      CODE     ---       #4691
      ---         BLOCKEND  ---      ---       LVL=0
LX51 LINKER/LOCATER V4.41                                                             05/23/2018  09:43:07  PAGE 49



      01004077H   BLOCK     CODE     ---       LVL=0
      01004077H   BLOCK     CODE     NEAR LAB  LVL=1
      02000777H   SYMBOL    XDATA    BYTE      i
      02000778H   SYMBOL    XDATA    ---       tmp
      0200077CH   SYMBOL    XDATA    ---       tmp_ieee
      ---         BLOCKEND  ---      ---       LVL=1
      01004077H   LINE      CODE     ---       #4696
      01004077H   LINE      CODE     ---       #4697
      01004077H   LINE      CODE     ---       #4699
      01004077H   LINE      CODE     ---       #4707
      01004086H   LINE      CODE     ---       #4708
      01004086H   LINE      CODE     ---       #4710
      01004094H   LINE      CODE     ---       #4711
      01004094H   LINE      CODE     ---       #4712
      01004094H   LINE      CODE     ---       #4713
      01004094H   LINE      CODE     ---       #4714
      0100409CH   LINE      CODE     ---       #4716
      010040A5H   LINE      CODE     ---       #4717
      010040A5H   LINE      CODE     ---       #4719
      010040BFH   LINE      CODE     ---       #4720
      010040BFH   LINE      CODE     ---       #4722
      010040BFH   LINE      CODE     ---       #4724
      010040D3H   LINE      CODE     ---       #4726
      010040E2H   LINE      CODE     ---       #4727
      010040E2H   LINE      CODE     ---       #4730
      010040FDH   LINE      CODE     ---       #4731
      010040FDH   LINE      CODE     ---       #4732
      010040FDH   LINE      CODE     ---       #4733
      010040FDH   LINE      CODE     ---       #4734
      01004105H   LINE      CODE     ---       #4736
      0100410BH   LINE      CODE     ---       #4737
      0100410BH   LINE      CODE     ---       #4739
      0100411FH   LINE      CODE     ---       #4740
      0100412AH   LINE      CODE     ---       #4742
      0100413EH   LINE      CODE     ---       #4743
      01004152H   LINE      CODE     ---       #4744
      01004152H   LINE      CODE     ---       #4745
      01004152H   LINE      CODE     ---       #4746
      01004152H   LINE      CODE     ---       #4747
      ---         BLOCKEND  ---      ---       LVL=0

      0100776CH   BLOCK     CODE     ---       LVL=0
      0100776CH   LINE      CODE     ---       #4750
      0100776CH   LINE      CODE     ---       #4751
      0100776CH   LINE      CODE     ---       #4752
      ---         BLOCKEND  ---      ---       LVL=0

      010075FEH   BLOCK     CODE     ---       LVL=0
      010075FEH   LINE      CODE     ---       #4755
      010075FEH   LINE      CODE     ---       #4756
      010075FEH   LINE      CODE     ---       #4758
      010075FEH   LINE      CODE     ---       #4759
      01007603H   LINE      CODE     ---       #4760
      01007607H   LINE      CODE     ---       #4761
      01007607H   LINE      CODE     ---       #4762
      ---         BLOCKEND  ---      ---       LVL=0

      010076DBH   BLOCK     CODE     ---       LVL=0
      010076DBH   LINE      CODE     ---       #4765
      010076DBH   LINE      CODE     ---       #4767
      010076DEH   LINE      CODE     ---       #4769
      ---         BLOCKEND  ---      ---       LVL=0

      010073DDH   BLOCK     CODE     ---       LVL=0
LX51 LINKER/LOCATER V4.41                                                             05/23/2018  09:43:07  PAGE 50


      00000007H   SYMBOL    DATA     BYTE      myGroup
      00000004H   SYMBOL    DATA     WORD      myAddr
      010073DDH   LINE      CODE     ---       #4774
      010073DDH   LINE      CODE     ---       #4776
      010073DDH   LINE      CODE     ---       #4779
      010073DDH   LINE      CODE     ---       #4780
      010073E5H   LINE      CODE     ---       #4781
      010073EAH   LINE      CODE     ---       #4782
      010073EAH   LINE      CODE     ---       #4783
      ---         BLOCKEND  ---      ---       LVL=0

      01006F3DH   BLOCK     CODE     ---       LVL=0
      ---         BLOCKEND  ---      ---       LVL=0

      01006F4DH   BLOCK     CODE     ---       LVL=0
      00000001H   SYMBOL    DATA     ---       source
      00000001H   SYMBOL    DATA     ---       base
      01006F4DH   BLOCK     CODE     NEAR LAB  LVL=1
      00000001H   SYMBOL    DATA     ---       base
      ---         BLOCKEND  ---      ---       LVL=1
      01006F4DH   LINE      CODE     ---       #4791
      01006F4DH   LINE      CODE     ---       #4793
      01006F4DH   LINE      CODE     ---       #4794
      01006F4DH   LINE      CODE     ---       #4797
      01006F5AH   LINE      CODE     ---       #4798
      ---         BLOCKEND  ---      ---       LVL=0

      010074E0H   BLOCK     CODE     ---       LVL=0
      ---         BLOCKEND  ---      ---       LVL=0

      010074E8H   BLOCK     CODE     ---       LVL=0
      00000001H   SYMBOL    DATA     ---       amsg
      010074E8H   LINE      CODE     ---       #4801
      010074E8H   LINE      CODE     ---       #4802
      010074E8H   LINE      CODE     ---       #4803
      010074ECH   LINE      CODE     ---       #4804
      ---         BLOCKEND  ---      ---       LVL=0

      010072D4H   BLOCK     CODE     ---       LVL=0
      ---         BLOCKEND  ---      ---       LVL=0

      010072E1H   BLOCK     CODE     ---       LVL=0
      00000001H   SYMBOL    DATA     ---       target
      00000005H   SYMBOL    DATA     BYTE      value
      00000001H   SYMBOL    DATA     ---       base
      010072E1H   BLOCK     CODE     NEAR LAB  LVL=1
      00000001H   SYMBOL    DATA     ---       base
      ---         BLOCKEND  ---      ---       LVL=1
      010072E1H   LINE      CODE     ---       #4809
      010072E1H   LINE      CODE     ---       #4811
      010072E1H   LINE      CODE     ---       #4812
      010072E1H   LINE      CODE     ---       #4815
      010072E5H   LINE      CODE     ---       #4816
      010072E6H   LINE      CODE     ---       #4817
      ---         BLOCKEND  ---      ---       LVL=0

      01007258H   BLOCK     CODE     ---       LVL=0
      ---         BLOCKEND  ---      ---       LVL=0

      01007267H   BLOCK     CODE     ---       LVL=0
      00000001H   SYMBOL    DATA     ---       target
      00000005H   SYMBOL    DATA     BYTE      value
      00000001H   SYMBOL    DATA     ---       base
      01007267H   BLOCK     CODE     NEAR LAB  LVL=1
      00000001H   SYMBOL    DATA     ---       base
LX51 LINKER/LOCATER V4.41                                                             05/23/2018  09:43:07  PAGE 51


      ---         BLOCKEND  ---      ---       LVL=1
      01007267H   LINE      CODE     ---       #4820
      01007267H   LINE      CODE     ---       #4822
      01007267H   LINE      CODE     ---       #4823
      01007267H   LINE      CODE     ---       #4826
      0100726BH   LINE      CODE     ---       #4827
      0100726CH   LINE      CODE     ---       #4828
      ---         BLOCKEND  ---      ---       LVL=0

      01005C56H   BLOCK     CODE     ---       LVL=0
      02000738H   SYMBOL    XDATA    WORD      addr
      0200073AH   SYMBOL    XDATA    ---       msg
      0200073DH   SYMBOL    XDATA    BYTE      len
      01005C59H   BLOCK     CODE     NEAR LAB  LVL=1
      0200073EH   SYMBOL    XDATA    BYTE      __nesc_atomic
      ---         BLOCKEND  ---      ---       LVL=1
      01005C56H   LINE      CODE     ---       #4833
      01005C59H   LINE      CODE     ---       #4834
      01005C59H   LINE      CODE     ---       #4835
      01005C61H   LINE      CODE     ---       #4837
      01005C76H   LINE      CODE     ---       #4838
      01005C7EH   LINE      CODE     ---       #4839
      01005C7EH   LINE      CODE     ---       #4841
      01005C86H   LINE      CODE     ---       #4843
      01005CA2H   LINE      CODE     ---       #4844
      ---         BLOCKEND  ---      ---       LVL=0

      01006CC6H   BLOCK     CODE     ---       LVL=0
      02000735H   SYMBOL    XDATA    ---       msg
      01006CC6H   LINE      CODE     ---       #4849
      01006CD1H   LINE      CODE     ---       #4850
      01006CD1H   LINE      CODE     ---       #4851
      01006CEBH   LINE      CODE     ---       #4852
      01006CEBH   LINE      CODE     ---       #4853
      01006CEBH   LINE      CODE     ---       #4854
      ---         BLOCKEND  ---      ---       LVL=0

      01007661H   BLOCK     CODE     ---       LVL=0
      01007661H   LINE      CODE     ---       #4857
      01007661H   LINE      CODE     ---       #4858
      01007661H   LINE      CODE     ---       #4859
      ---         BLOCKEND  ---      ---       LVL=0

      010076C6H   BLOCK     CODE     ---       LVL=0
      00000001H   SYMBOL    DATA     ---       msg
      00000005H   SYMBOL    DATA     BYTE      len
      010076C6H   LINE      CODE     ---       #4863
      010076C6H   LINE      CODE     ---       #4864
      010076C6H   LINE      CODE     ---       #4865
      ---         BLOCKEND  ---      ---       LVL=0

      010070C5H   BLOCK     CODE     ---       LVL=0
      ---         BLOCKEND  ---      ---       LVL=0

      010070CEH   BLOCK     CODE     ---       LVL=0
      00000001H   SYMBOL    DATA     ---       target
      00000004H   SYMBOL    DATA     WORD      value
      00000001H   SYMBOL    DATA     ---       base
      010070CEH   BLOCK     CODE     NEAR LAB  LVL=1
      00000001H   SYMBOL    DATA     ---       base
      ---         BLOCKEND  ---      ---       LVL=1
      010070CEH   LINE      CODE     ---       #4871
      010070CEH   LINE      CODE     ---       #4873
      010070CEH   LINE      CODE     ---       #4874
      010070CEH   LINE      CODE     ---       #4877
LX51 LINKER/LOCATER V4.41                                                             05/23/2018  09:43:07  PAGE 52


      010070D2H   LINE      CODE     ---       #4878
      010070D9H   LINE      CODE     ---       #4879
      010070DDH   LINE      CODE     ---       #4880
      ---         BLOCKEND  ---      ---       LVL=0

      01007520H   BLOCK     CODE     ---       LVL=0
      00000001H   SYMBOL    DATA     ---       amsg
      00000005H   SYMBOL    DATA     BYTE      grp
      01007520H   LINE      CODE     ---       #4883
      01007520H   LINE      CODE     ---       #4884
      01007520H   LINE      CODE     ---       #4885
      ---         BLOCKEND  ---      ---       LVL=0

      010076E1H   BLOCK     CODE     ---       LVL=0
      010076E1H   BLOCK     CODE     NEAR LAB  LVL=1
      00000007H   SYMBOL    DATA     BYTE      myGroup
      ---         BLOCKEND  ---      ---       LVL=1
      010076E1H   LINE      CODE     ---       #4891
      010076E1H   LINE      CODE     ---       #4893
      010076E1H   LINE      CODE     ---       #4898
      010076E6H   LINE      CODE     ---       #4899
      010076E6H   LINE      CODE     ---       #4900
      ---         BLOCKEND  ---      ---       LVL=0

      01006D12H   BLOCK     CODE     ---       LVL=0
      01006D12H   LINE      CODE     ---       #4907
      01006D12H   LINE      CODE     ---       #4908
      01006D12H   LINE      CODE     ---       #4910
      01006D12H   LINE      CODE     ---       #4911
      01006D18H   LINE      CODE     ---       #4912
      01006D18H   LINE      CODE     ---       #4913
      01006D20H   LINE      CODE     ---       #4914
      01006D26H   LINE      CODE     ---       #4915
      01006D26H   LINE      CODE     ---       #4918
      01006D30H   LINE      CODE     ---       #4919
      01006D30H   LINE      CODE     ---       #4922
      01006D33H   LINE      CODE     ---       #4923
      01006D33H   LINE      CODE     ---       #4924
      01006D33H   LINE      CODE     ---       #4927
      01006D36H   LINE      CODE     ---       #4928
      ---         BLOCKEND  ---      ---       LVL=0

      010073EDH   BLOCK     CODE     ---       LVL=0
      ---         BLOCKEND  ---      ---       LVL=0

      010073F3H   BLOCK     CODE     ---       LVL=0
      00000001H   SYMBOL    DATA     ---       amsg
      00000004H   SYMBOL    DATA     WORD      addr
      010073F3H   LINE      CODE     ---       #4933
      010073F3H   LINE      CODE     ---       #4934
      010073F3H   LINE      CODE     ---       #4935
      ---         BLOCKEND  ---      ---       LVL=0

      01007608H   BLOCK     CODE     ---       LVL=0
      00000001H   SYMBOL    DATA     ---       amsg
      00000004H   SYMBOL    DATA     WORD      addr
      01007608H   LINE      CODE     ---       #4941
      01007608H   LINE      CODE     ---       #4942
      01007608H   LINE      CODE     ---       #4943
      ---         BLOCKEND  ---      ---       LVL=0

      01007727H   BLOCK     CODE     ---       LVL=0
      01007727H   LINE      CODE     ---       #4951
      01007727H   LINE      CODE     ---       #4953
      01007727H   LINE      CODE     ---       #4954
LX51 LINKER/LOCATER V4.41                                                             05/23/2018  09:43:07  PAGE 53


      0100772AH   LINE      CODE     ---       #4955
      ---         BLOCKEND  ---      ---       LVL=0

      010072FAH   BLOCK     CODE     ---       LVL=0
      ---         BLOCKEND  ---      ---       LVL=0

      01007307H   BLOCK     CODE     ---       LVL=0
      00000001H   SYMBOL    DATA     ---       source
      00000001H   SYMBOL    DATA     ---       base
      01007307H   BLOCK     CODE     NEAR LAB  LVL=1
      00000001H   SYMBOL    DATA     ---       base
      ---         BLOCKEND  ---      ---       LVL=1
      01007307H   LINE      CODE     ---       #4960
      01007307H   LINE      CODE     ---       #4962
      01007307H   LINE      CODE     ---       #4963
      01007307H   LINE      CODE     ---       #4966
      0100730BH   LINE      CODE     ---       #4967
      ---         BLOCKEND  ---      ---       LVL=0

      01007697H   BLOCK     CODE     ---       LVL=0
      01007697H   BLOCK     CODE     NEAR LAB  LVL=1
      020007D9H   SYMBOL    XDATA    BYTE      __nesc_temp
      ---         BLOCKEND  ---      ---       LVL=1
      01007697H   LINE      CODE     ---       #4972
      01007697H   LINE      CODE     ---       #4973
      01007697H   LINE      CODE     ---       #4975
      01007697H   LINE      CODE     ---       #4976
      01007697H   LINE      CODE     ---       #4977
      0100769DH   LINE      CODE     ---       #4982
      0100769EH   LINE      CODE     ---       #4983
      0100769EH   LINE      CODE     ---       #4984
      0100769EH   LINE      CODE     ---       #4985
      ---         BLOCKEND  ---      ---       LVL=0

      01007612H   BLOCK     CODE     ---       LVL=0
      01007612H   BLOCK     CODE     NEAR LAB  LVL=1
      020007E0H   SYMBOL    XDATA    BYTE      __nesc_temp
      ---         BLOCKEND  ---      ---       LVL=1
      01007612H   LINE      CODE     ---       #4988
      01007612H   LINE      CODE     ---       #4989
      01007612H   LINE      CODE     ---       #4991
      01007612H   LINE      CODE     ---       #4992
      01007612H   LINE      CODE     ---       #4993
      0100761BH   LINE      CODE     ---       #4998
      0100761BH   LINE      CODE     ---       #4999
      0100761BH   LINE      CODE     ---       #5000
      0100761BH   LINE      CODE     ---       #5001
      ---         BLOCKEND  ---      ---       LVL=0

      01006007H   BLOCK     CODE     ---       LVL=0
      00000001H   SYMBOL    DATA     ---       newVal
      0100603DH   BLOCK     CODE     NEAR LAB  LVL=1
      020007D8H   SYMBOL    XDATA    BYTE      __nesc_temp
      020007D8H   SYMBOL    XDATA    BYTE      __nesc_temp
      ---         BLOCKEND  ---      ---       LVL=1
      01006044H   BLOCK     CODE     NEAR LAB  LVL=1
      020007D8H   SYMBOL    XDATA    BYTE      __nesc_temp
      ---         BLOCKEND  ---      ---       LVL=1
      01006007H   LINE      CODE     ---       #5004
      01006007H   LINE      CODE     ---       #5005
      01006007H   LINE      CODE     ---       #5007
      01006007H   LINE      CODE     ---       #5008
      01006014H   LINE      CODE     ---       #5009
      01006014H   LINE      CODE     ---       #5010
      0100602DH   LINE      CODE     ---       #5011
LX51 LINKER/LOCATER V4.41                                                             05/23/2018  09:43:07  PAGE 54


      01006033H   LINE      CODE     ---       #5012
      01006037H   LINE      CODE     ---       #5013
      0100603DH   LINE      CODE     ---       #5014
      0100603DH   LINE      CODE     ---       #5015
      01006042H   LINE      CODE     ---       #5020
      01006044H   LINE      CODE     ---       #5021
      01006044H   LINE      CODE     ---       #5022
      01006044H   LINE      CODE     ---       #5023
      01006044H   LINE      CODE     ---       #5024
      01006044H   LINE      CODE     ---       #5025
      0100604AH   LINE      CODE     ---       #5030
      0100604BH   LINE      CODE     ---       #5031
      0100604BH   LINE      CODE     ---       #5032
      0100604BH   LINE      CODE     ---       #5033
      0100604BH   LINE      CODE     ---       #5034
      ---         BLOCKEND  ---      ---       LVL=0

      01005709H   BLOCK     CODE     ---       LVL=0
      020007D8H   SYMBOL    XDATA    BYTE      resource_id
      0100570EH   BLOCK     CODE     NEAR LAB  LVL=1
      020007D9H   SYMBOL    XDATA    BYTE      i
      020007DAH   SYMBOL    XDATA    BYTE      size
      01005729H   BLOCK     CODE     NEAR LAB  LVL=2
      020007DBH   SYMBOL    XDATA    ---       msg
      020007DBH   SYMBOL    XDATA    INT       __nesc_temp
      01005753H   BLOCK     CODE     NEAR LAB  LVL=3
      020007DEH   SYMBOL    XDATA    INT       __nesc_temp
      ---         BLOCKEND  ---      ---       LVL=3
      ---         BLOCKEND  ---      ---       LVL=2
      01005769H   BLOCK     CODE     NEAR LAB  LVL=2
      020007DBH   SYMBOL    XDATA    INT       __nesc_temp
      ---         BLOCKEND  ---      ---       LVL=2
      ---         BLOCKEND  ---      ---       LVL=1
      01005709H   LINE      CODE     ---       #5043
      0100570EH   LINE      CODE     ---       #5044
      0100570EH   LINE      CODE     ---       #5046
      0100570EH   LINE      CODE     ---       #5048
      01005716H   LINE      CODE     ---       #5051
      01005729H   LINE      CODE     ---       #5052
      01005729H   LINE      CODE     ---       #5053
      01005737H   LINE      CODE     ---       #5056
      01005753H   LINE      CODE     ---       #5057
      01005753H   LINE      CODE     ---       #5058
      01005753H   LINE      CODE     ---       #5059
      01005760H   LINE      CODE     ---       #5064
      01005761H   LINE      CODE     ---       #5065
      01005761H   LINE      CODE     ---       #5066
      01005761H   LINE      CODE     ---       #5067
      01005769H   LINE      CODE     ---       #5068
      01005769H   LINE      CODE     ---       #5069
      01005771H   LINE      CODE     ---       #5074
      01005773H   LINE      CODE     ---       #5075
      01005773H   LINE      CODE     ---       #5076
      01005773H   LINE      CODE     ---       #5077
      ---         BLOCKEND  ---      ---       LVL=0

      01005DCEH   BLOCK     CODE     ---       LVL=0
      020007D4H   SYMBOL    XDATA    ---       msg
      01005DEAH   BLOCK     CODE     NEAR LAB  LVL=1
      020007D7H   SYMBOL    XDATA    BYTE      __nesc_temp
      020007D7H   SYMBOL    XDATA    BYTE      __nesc_temp
      ---         BLOCKEND  ---      ---       LVL=1
      01005E03H   BLOCK     CODE     NEAR LAB  LVL=1
      020007D7H   SYMBOL    XDATA    BYTE      __nesc_temp
      ---         BLOCKEND  ---      ---       LVL=1
LX51 LINKER/LOCATER V4.41                                                             05/23/2018  09:43:07  PAGE 55


      01005E10H   BLOCK     CODE     NEAR LAB  LVL=1
      020007D7H   SYMBOL    XDATA    BYTE      __nesc_temp
      ---         BLOCKEND  ---      ---       LVL=1
      01005DCEH   LINE      CODE     ---       #5080
      01005DD9H   LINE      CODE     ---       #5081
      01005DD9H   LINE      CODE     ---       #5083
      01005DD9H   LINE      CODE     ---       #5084
      01005DEAH   LINE      CODE     ---       #5085
      01005DEAH   LINE      CODE     ---       #5086
      01005DEAH   LINE      CODE     ---       #5087
      01005DF0H   LINE      CODE     ---       #5092
      01005DF2H   LINE      CODE     ---       #5093
      01005DF2H   LINE      CODE     ---       #5094
      01005DF2H   LINE      CODE     ---       #5097
      01005E03H   LINE      CODE     ---       #5098
      01005E03H   LINE      CODE     ---       #5099
      01005E03H   LINE      CODE     ---       #5100
      01005E09H   LINE      CODE     ---       #5105
      01005E0BH   LINE      CODE     ---       #5106
      01005E0BH   LINE      CODE     ---       #5107
      01005E0BH   LINE      CODE     ---       #5109
      01005E10H   LINE      CODE     ---       #5111
      01005E10H   LINE      CODE     ---       #5112
      01005E15H   LINE      CODE     ---       #5117
      01005E16H   LINE      CODE     ---       #5118
      01005E16H   LINE      CODE     ---       #5119
      01005E16H   LINE      CODE     ---       #5120
      ---         BLOCKEND  ---      ---       LVL=0

      01006619H   BLOCK     CODE     ---       LVL=0
      020007CFH   SYMBOL    XDATA    ---       msg
      020007D2H   SYMBOL    XDATA    BYTE      len
      01006639H   BLOCK     CODE     NEAR LAB  LVL=1
      020007D3H   SYMBOL    XDATA    BYTE      __nesc_temp
      ---         BLOCKEND  ---      ---       LVL=1
      01006619H   LINE      CODE     ---       #5123
      01006629H   LINE      CODE     ---       #5124
      01006629H   LINE      CODE     ---       #5127
      01006629H   LINE      CODE     ---       #5131
      01006639H   LINE      CODE     ---       #5137
      01006639H   LINE      CODE     ---       #5138
      0100664CH   LINE      CODE     ---       #5143
      0100664CH   LINE      CODE     ---       #5144
      0100664CH   LINE      CODE     ---       #5145
      0100664CH   LINE      CODE     ---       #5146
      ---         BLOCKEND  ---      ---       LVL=0

      0100604CH   BLOCK     CODE     ---       LVL=0
      00000003H   SYMBOL    DATA     BYTE      id
      0100604EH   BLOCK     CODE     NEAR LAB  LVL=1
      00000007H   SYMBOL    DATA     BYTE      i
      ---         BLOCKEND  ---      ---       LVL=1
      0100604CH   LINE      CODE     ---       #5151
      0100604EH   LINE      CODE     ---       #5152
      0100604EH   LINE      CODE     ---       #5157
      01006058H   LINE      CODE     ---       #5159
      01006060H   LINE      CODE     ---       #5160
      01006060H   LINE      CODE     ---       #5161
      0100606EH   LINE      CODE     ---       #5162
      0100606EH   LINE      CODE     ---       #5163
      01006071H   LINE      CODE     ---       #5164
      01006071H   LINE      CODE     ---       #5166
      01006081H   LINE      CODE     ---       #5167
      0100608CH   LINE      CODE     ---       #5168
      0100608EH   LINE      CODE     ---       #5170
LX51 LINKER/LOCATER V4.41                                                             05/23/2018  09:43:07  PAGE 56


      01006090H   LINE      CODE     ---       #5171
      ---         BLOCKEND  ---      ---       LVL=0

      0100562EH   BLOCK     CODE     ---       LVL=0
      020007DAH   SYMBOL    XDATA    BYTE      id
      01005659H   BLOCK     CODE     NEAR LAB  LVL=1
      020007DBH   SYMBOL    XDATA    BYTE      __nesc_temp
      ---         BLOCKEND  ---      ---       LVL=1
      0100568EH   BLOCK     CODE     NEAR LAB  LVL=1
      020007DBH   SYMBOL    XDATA    BYTE      __nesc_temp
      020007DBH   SYMBOL    XDATA    BYTE      __nesc_temp
      ---         BLOCKEND  ---      ---       LVL=1
      01005696H   BLOCK     CODE     NEAR LAB  LVL=1
      020007DBH   SYMBOL    XDATA    BYTE      __nesc_temp
      ---         BLOCKEND  ---      ---       LVL=1
      0100562EH   LINE      CODE     ---       #5175
      01005633H   LINE      CODE     ---       #5176
      01005633H   LINE      CODE     ---       #5179
      01005633H   LINE      CODE     ---       #5180
      0100563BH   LINE      CODE     ---       #5182
      01005641H   LINE      CODE     ---       #5183
      01005641H   LINE      CODE     ---       #5184
      01005659H   LINE      CODE     ---       #5185
      01005659H   LINE      CODE     ---       #5187
      01005659H   LINE      CODE     ---       #5188
      01005659H   LINE      CODE     ---       #5193
      0100565BH   LINE      CODE     ---       #5194
      0100565BH   LINE      CODE     ---       #5195
      0100565BH   LINE      CODE     ---       #5196
      01005666H   LINE      CODE     ---       #5197
      0100567BH   LINE      CODE     ---       #5198
      0100568EH   LINE      CODE     ---       #5199
      0100568EH   LINE      CODE     ---       #5200
      01005694H   LINE      CODE     ---       #5205
      01005696H   LINE      CODE     ---       #5206
      01005696H   LINE      CODE     ---       #5207
      01005696H   LINE      CODE     ---       #5208
      01005696H   LINE      CODE     ---       #5209
      01005696H   LINE      CODE     ---       #5210
      0100569BH   LINE      CODE     ---       #5215
      0100569CH   LINE      CODE     ---       #5216
      0100569CH   LINE      CODE     ---       #5217
      0100569CH   LINE      CODE     ---       #5218
      0100569CH   LINE      CODE     ---       #5219
      ---         BLOCKEND  ---      ---       LVL=0

      0100730CH   BLOCK     CODE     ---       LVL=0
      00000001H   SYMBOL    DATA     ---       msg
      00000005H   SYMBOL    DATA     BYTE      error
      0100730CH   LINE      CODE     ---       #5224
      0100730CH   LINE      CODE     ---       #5225
      0100730CH   LINE      CODE     ---       #5226
      01007312H   LINE      CODE     ---       #5227
      01007312H   LINE      CODE     ---       #5228
      01007315H   LINE      CODE     ---       #5229
      01007315H   LINE      CODE     ---       #5230
      01007318H   LINE      CODE     ---       #5231
      01007318H   LINE      CODE     ---       #5233
      01007318H   LINE      CODE     ---       #5234
      0100731DH   LINE      CODE     ---       #5235
      0100731DH   LINE      CODE     ---       #5236
      0100731DH   LINE      CODE     ---       #5237
      ---         BLOCKEND  ---      ---       LVL=0

      01006091H   BLOCK     CODE     ---       LVL=0
LX51 LINKER/LOCATER V4.41                                                             05/23/2018  09:43:07  PAGE 57


      01006091H   BLOCK     CODE     NEAR LAB  LVL=1
      00000001H   SYMBOL    DATA     ---       msg
      00000006H   SYMBOL    DATA     BYTE      result
      01006091H   BLOCK     CODE     NEAR LAB  LVL=2
      02000735H   SYMBOL    XDATA    BYTE      __nesc_atomic
      02000735H   SYMBOL    XDATA    BYTE      __nesc_atomic
      ---         BLOCKEND  ---      ---       LVL=2
      010060C5H   BLOCK     CODE     NEAR LAB  LVL=2
      02000735H   SYMBOL    XDATA    BYTE      __nesc_atomic
      ---         BLOCKEND  ---      ---       LVL=2
      ---         BLOCKEND  ---      ---       LVL=1
      01006091H   LINE      CODE     ---       #5242
      01006091H   LINE      CODE     ---       #5243
      01006091H   LINE      CODE     ---       #5244
      01006091H   LINE      CODE     ---       #5247
      01006099H   LINE      CODE     ---       #5249
      0100609FH   LINE      CODE     ---       #5250
      0100609FH   LINE      CODE     ---       #5251
      0100609FH   LINE      CODE     ---       #5253
      010060A6H   LINE      CODE     ---       #5256
      010060A6H   LINE      CODE     ---       #5257
      010060A6H   LINE      CODE     ---       #5258
      010060B1H   LINE      CODE     ---       #5259
      010060B6H   LINE      CODE     ---       #5260
      010060B6H   LINE      CODE     ---       #5262
      010060BEH   LINE      CODE     ---       #5264
      010060C5H   LINE      CODE     ---       #5265
      010060CDH   LINE      CODE     ---       #5267
      010060D2H   LINE      CODE     ---       #5269
      010060D5H   LINE      CODE     ---       #5270
      ---         BLOCKEND  ---      ---       LVL=0

      010072ACH   BLOCK     CODE     ---       LVL=0
      02000737H   SYMBOL    XDATA    ---       msg
      00000005H   SYMBOL    DATA     BYTE      error
      010072ACH   LINE      CODE     ---       #5275
      010072B7H   LINE      CODE     ---       #5276
      010072B7H   LINE      CODE     ---       #5277
      010072BAH   LINE      CODE     ---       #5278
      010072BAH   LINE      CODE     ---       #5279
      010072BFH   LINE      CODE     ---       #5280
      010072BFH   LINE      CODE     ---       #5281
      ---         BLOCKEND  ---      ---       LVL=0

      01005F35H   BLOCK     CODE     ---       LVL=0
      01005F35H   BLOCK     CODE     NEAR LAB  LVL=1
      02000735H   SYMBOL    XDATA    BYTE      __nesc_atomic
      ---         BLOCKEND  ---      ---       LVL=1
      01005F35H   LINE      CODE     ---       #5286
      01005F35H   LINE      CODE     ---       #5287
      01005F35H   LINE      CODE     ---       #5288
      01005F3DH   LINE      CODE     ---       #5290
      01005F43H   LINE      CODE     ---       #5291
      01005F43H   LINE      CODE     ---       #5292
      01005F43H   LINE      CODE     ---       #5294
      01005F45H   LINE      CODE     ---       #5297
      01005F45H   LINE      CODE     ---       #5298
      01005F45H   LINE      CODE     ---       #5299
      01005F52H   LINE      CODE     ---       #5300
      01005F52H   LINE      CODE     ---       #5301
      01005F5BH   LINE      CODE     ---       #5302
      01005F5BH   LINE      CODE     ---       #5304
      01005F60H   LINE      CODE     ---       #5305
      01005F60H   LINE      CODE     ---       #5306
      01005F62H   LINE      CODE     ---       #5308
LX51 LINKER/LOCATER V4.41                                                             05/23/2018  09:43:07  PAGE 58


      01005F62H   LINE      CODE     ---       #5310
      01005F72H   LINE      CODE     ---       #5311
      01005F72H   LINE      CODE     ---       #5312
      01005F72H   LINE      CODE     ---       #5314
      01005F7AH   LINE      CODE     ---       #5315
      ---         BLOCKEND  ---      ---       LVL=0

      010071BAH   BLOCK     CODE     ---       LVL=0
      ---         BLOCKEND  ---      ---       LVL=0

      010071C9H   BLOCK     CODE     ---       LVL=0
      00000001H   SYMBOL    DATA     ---       target
      00000006H   SYMBOL    DATA     CHAR      value
      010071C9H   LINE      CODE     ---       #5318
      010071CBH   LINE      CODE     ---       #5320
      010071CBH   LINE      CODE     ---       #5322
      010071CEH   LINE      CODE     ---       #5324
      010071D0H   LINE      CODE     ---       #5325
      ---         BLOCKEND  ---      ---       LVL=0

      010074D2H   BLOCK     CODE     ---       LVL=0
      ---         BLOCKEND  ---      ---       LVL=0

      010074DBH   BLOCK     CODE     ---       LVL=0
      00000001H   SYMBOL    DATA     ---       source
      00000001H   SYMBOL    DATA     ---       base
      010074DBH   BLOCK     CODE     NEAR LAB  LVL=1
      00000001H   SYMBOL    DATA     ---       base
      ---         BLOCKEND  ---      ---       LVL=1
      010074DBH   LINE      CODE     ---       #5330
      010074DBH   LINE      CODE     ---       #5332
      010074DBH   LINE      CODE     ---       #5333
      010074DBH   LINE      CODE     ---       #5336
      010074DFH   LINE      CODE     ---       #5337
      ---         BLOCKEND  ---      ---       LVL=0

      01007378H   BLOCK     CODE     ---       LVL=0
      ---         BLOCKEND  ---      ---       LVL=0

      01007380H   BLOCK     CODE     ---       LVL=0
      00000001H   SYMBOL    DATA     ---       msg
      01007380H   LINE      CODE     ---       #5340
      01007380H   LINE      CODE     ---       #5341
      01007380H   LINE      CODE     ---       #5342
      01007388H   LINE      CODE     ---       #5343
      ---         BLOCKEND  ---      ---       LVL=0

      01005CA3H   BLOCK     CODE     ---       LVL=0
      020007B4H   SYMBOL    XDATA    WORD      addr
      020007B6H   SYMBOL    XDATA    ---       msg
      020007B9H   SYMBOL    XDATA    BYTE      len
      01005CA3H   LINE      CODE     ---       #5350
      01005CB4H   LINE      CODE     ---       #5351
      01005CB4H   LINE      CODE     ---       #5353
      01005CB4H   LINE      CODE     ---       #5354
      01005CC9H   LINE      CODE     ---       #5355
      01005CD1H   LINE      CODE     ---       #5356
      01005CD1H   LINE      CODE     ---       #5358
      01005CEDH   LINE      CODE     ---       #5359
      ---         BLOCKEND  ---      ---       LVL=0

      0100726DH   BLOCK     CODE     ---       LVL=0
      ---         BLOCKEND  ---      ---       LVL=0

      01007275H   BLOCK     CODE     ---       LVL=0
LX51 LINKER/LOCATER V4.41                                                             05/23/2018  09:43:07  PAGE 59


      00000001H   SYMBOL    DATA     ---       msg
      01007275H   LINE      CODE     ---       #5366
      01007275H   LINE      CODE     ---       #5367
      01007275H   LINE      CODE     ---       #5368
      01007281H   LINE      CODE     ---       #5369
      ---         BLOCKEND  ---      ---       LVL=0

      01004582H   BLOCK     CODE     ---       LVL=0
      020007A6H   SYMBOL    XDATA    WORD      addr
      020007A8H   SYMBOL    XDATA    ---       msg
      020007ABH   SYMBOL    XDATA    BYTE      len
      01004593H   BLOCK     CODE     NEAR LAB  LVL=1
      020007ACH   SYMBOL    XDATA    BYTE      result
      01004593H   BLOCK     CODE     NEAR LAB  LVL=2
      020007ADH   SYMBOL    XDATA    ---       header
      020007B0H   SYMBOL    XDATA    ---       meta_data
      010045C2H   BLOCK     CODE     NEAR LAB  LVL=3
      020007B3H   SYMBOL    XDATA    BYTE      __nesc_temp
      ---         BLOCKEND  ---      ---       LVL=3
      01004647H   BLOCK     CODE     NEAR LAB  LVL=3
      020007B3H   SYMBOL    XDATA    BYTE      __nesc_temp
      ---         BLOCKEND  ---      ---       LVL=3
      ---         BLOCKEND  ---      ---       LVL=2
      ---         BLOCKEND  ---      ---       LVL=1
      01004582H   LINE      CODE     ---       #5374
      01004593H   LINE      CODE     ---       #5375
      01004593H   LINE      CODE     ---       #5376
      01004593H   LINE      CODE     ---       #5380
      010045A1H   LINE      CODE     ---       #5381
      010045BCH   LINE      CODE     ---       #5385
      010045C2H   LINE      CODE     ---       #5386
      010045C2H   LINE      CODE     ---       #5387
      010045C2H   LINE      CODE     ---       #5388
      010045C8H   LINE      CODE     ---       #5393
      010045CAH   LINE      CODE     ---       #5394
      010045CAH   LINE      CODE     ---       #5395
      010045CAH   LINE      CODE     ---       #5396
      010045ECH   LINE      CODE     ---       #5398
      010045F2H   LINE      CODE     ---       #5400
      01004616H   LINE      CODE     ---       #5402
      01004625H   LINE      CODE     ---       #5404
      0100462CH   LINE      CODE     ---       #5405
      0100462CH   LINE      CODE     ---       #5406
      01004641H   LINE      CODE     ---       #5407
      01004647H   LINE      CODE     ---       #5408
      01004647H   LINE      CODE     ---       #5410
      01004647H   LINE      CODE     ---       #5411
      0100464CH   LINE      CODE     ---       #5416
      0100464CH   LINE      CODE     ---       #5417
      0100464CH   LINE      CODE     ---       #5418
      0100464CH   LINE      CODE     ---       #5419
      ---         BLOCKEND  ---      ---       LVL=0

      01007282H   BLOCK     CODE     ---       LVL=0
      020007BCH   SYMBOL    XDATA    CHAR      c
      01007282H   LINE      CODE     ---       #5424
      01007287H   LINE      CODE     ---       #5425
      01007287H   LINE      CODE     ---       #5426
      0100728AH   LINE      CODE     ---       #5427
      0100728AH   LINE      CODE     ---       #5428
      0100728AH   LINE      CODE     ---       #5430
      0100728FH   LINE      CODE     ---       #5431
      0100728FH   LINE      CODE     ---       #5434
      0100728FH   LINE      CODE     ---       #5435
      0100728FH   LINE      CODE     ---       #5437
LX51 LINKER/LOCATER V4.41                                                             05/23/2018  09:43:07  PAGE 60


      ---         BLOCKEND  ---      ---       LVL=0

      010075C7H   BLOCK     CODE     ---       LVL=0
      010075C7H   BLOCK     CODE     NEAR LAB  LVL=1
      020007D4H   SYMBOL    XDATA    BYTE      __nesc_temp
      ---         BLOCKEND  ---      ---       LVL=1
      010075C7H   LINE      CODE     ---       #5448
      010075C7H   LINE      CODE     ---       #5449
      010075C7H   LINE      CODE     ---       #5452
      010075C7H   LINE      CODE     ---       #5453
      010075CFH   LINE      CODE     ---       #5458
      010075D1H   LINE      CODE     ---       #5459
      010075D1H   LINE      CODE     ---       #5460
      ---         BLOCKEND  ---      ---       LVL=0

      01007297H   BLOCK     CODE     ---       LVL=0
      ---         BLOCKEND  ---      ---       LVL=0

      010072A3H   BLOCK     CODE     ---       LVL=0
      00000001H   SYMBOL    DATA     ---       msg
      010072A3H   LINE      CODE     ---       #5469
      010072A3H   LINE      CODE     ---       #5470
      010072A3H   LINE      CODE     ---       #5471
      010072ABH   LINE      CODE     ---       #5472
      ---         BLOCKEND  ---      ---       LVL=0

      01005CEEH   BLOCK     CODE     ---       LVL=0
      02000783H   SYMBOL    XDATA    ---       msg
      02000786H   SYMBOL    XDATA    ---       trace
      02000789H   SYMBOL    XDATA    INT       index
      01005CEEH   LINE      CODE     ---       #5479
      01005CF9H   LINE      CODE     ---       #5480
      01005CF9H   LINE      CODE     ---       #5481
      01005D07H   LINE      CODE     ---       #5482
      ---         BLOCKEND  ---      ---       LVL=0

      01004EB3H   BLOCK     CODE     ---       LVL=0
      01004EB3H   BLOCK     CODE     NEAR LAB  LVL=1
      02000735H   SYMBOL    XDATA    ---       header
      01004EC8H   BLOCK     CODE     NEAR LAB  LVL=2
      02000738H   SYMBOL    XDATA    ---       trace
      0200073BH   SYMBOL    XDATA    INT       index
      ---         BLOCKEND  ---      ---       LVL=2
      01004F17H   BLOCK     CODE     NEAR LAB  LVL=2
      02000738H   SYMBOL    XDATA    ---       trace_ack
      0200073BH   SYMBOL    XDATA    INT       index
      ---         BLOCKEND  ---      ---       LVL=2
      ---         BLOCKEND  ---      ---       LVL=1
      01004EB3H   LINE      CODE     ---       #5488
      01004EB3H   LINE      CODE     ---       #5489
      01004EB3H   LINE      CODE     ---       #5490
      01004EC1H   LINE      CODE     ---       #5492
      01004EC8H   LINE      CODE     ---       #5493
      01004EC8H   LINE      CODE     ---       #5494
      01004ED4H   LINE      CODE     ---       #5495
      01004EE2H   LINE      CODE     ---       #5498
      01004F06H   LINE      CODE     ---       #5499
      01004F06H   LINE      CODE     ---       #5500
      01004F06H   LINE      CODE     ---       #5502
      01004F17H   LINE      CODE     ---       #5503
      01004F17H   LINE      CODE     ---       #5504
      01004F1AH   LINE      CODE     ---       #5505
      01004F28H   LINE      CODE     ---       #5508
      01004F4CH   LINE      CODE     ---       #5509
      01004F4CH   LINE      CODE     ---       #5510
LX51 LINKER/LOCATER V4.41                                                             05/23/2018  09:43:07  PAGE 61


      01004F4CH   LINE      CODE     ---       #5511
      ---         BLOCKEND  ---      ---       LVL=0

      0100731EH   BLOCK     CODE     ---       LVL=0
      ---         BLOCKEND  ---      ---       LVL=0

      01007329H   BLOCK     CODE     ---       LVL=0
      00000001H   SYMBOL    DATA     ---       msg
      00000005H   SYMBOL    DATA     BYTE      len
      01007329H   LINE      CODE     ---       #5520
      01007329H   LINE      CODE     ---       #5521
      01007329H   LINE      CODE     ---       #5522
      ---         BLOCKEND  ---      ---       LVL=0

      0100752CH   BLOCK     CODE     ---       LVL=0
      0200073CH   SYMBOL    XDATA    ---       status
      0100752CH   LINE      CODE     ---       #5530
      01007537H   LINE      CODE     ---       #5531
      01007537H   LINE      CODE     ---       #5532
      ---         BLOCKEND  ---      ---       LVL=0

      01006C2AH   BLOCK     CODE     ---       LVL=0
      0200073CH   SYMBOL    XDATA    ---       ieee
      01006C2AH   LINE      CODE     ---       #5537
      01006C35H   LINE      CODE     ---       #5538
      01006C35H   LINE      CODE     ---       #5539
      ---         BLOCKEND  ---      ---       LVL=0

      010076E7H   BLOCK     CODE     ---       LVL=0
      010076E7H   LINE      CODE     ---       #5545
      010076E7H   LINE      CODE     ---       #5546
      010076E7H   LINE      CODE     ---       #5547
      010076ECH   LINE      CODE     ---       #5548
      ---         BLOCKEND  ---      ---       LVL=0

      0100495CH   BLOCK     CODE     ---       LVL=0
      02000735H   SYMBOL    XDATA    WORD      address
      01004964H   BLOCK     CODE     NEAR LAB  LVL=1
      02000737H   SYMBOL    XDATA    BYTE      __nesc_atomic
      0100496AH   BLOCK     CODE     NEAR LAB  LVL=2
      02000738H   SYMBOL    XDATA    ---       status
      010049ECH   BLOCK     CODE     NEAR LAB  LVL=3
      0200073BH   SYMBOL    XDATA    BYTE      __nesc_temp
      ---         BLOCKEND  ---      ---       LVL=3
      ---         BLOCKEND  ---      ---       LVL=2
      ---         BLOCKEND  ---      ---       LVL=1
      0100495CH   LINE      CODE     ---       #5553
      01004964H   LINE      CODE     ---       #5554
      01004964H   LINE      CODE     ---       #5555
      0100496AH   LINE      CODE     ---       #5557
      01004978H   LINE      CODE     ---       #5560
      01004988H   LINE      CODE     ---       #5561
      0100499BH   LINE      CODE     ---       #5562
      010049A2H   LINE      CODE     ---       #5563
      010049A9H   LINE      CODE     ---       #5565
      010049BEH   LINE      CODE     ---       #5567
      010049C8H   LINE      CODE     ---       #5569
      010049E1H   LINE      CODE     ---       #5571
      010049E4H   LINE      CODE     ---       #5573
      010049EAH   LINE      CODE     ---       #5574
      010049EAH   LINE      CODE     ---       #5575
      010049ECH   LINE      CODE     ---       #5576
      010049ECH   LINE      CODE     ---       #5578
      010049ECH   LINE      CODE     ---       #5579
      01004A08H   LINE      CODE     ---       #5585
LX51 LINKER/LOCATER V4.41                                                             05/23/2018  09:43:07  PAGE 62


      01004A10H   LINE      CODE     ---       #5587
      01004A15H   LINE      CODE     ---       #5588
      01004A15H   LINE      CODE     ---       #5589
      01004A15H   LINE      CODE     ---       #5590
      01004A15H   LINE      CODE     ---       #5592
      01004A15H   LINE      CODE     ---       #5593
      ---         BLOCKEND  ---      ---       LVL=0

      010075D2H   BLOCK     CODE     ---       LVL=0
      010075D2H   LINE      CODE     ---       #5596
      010075D2H   LINE      CODE     ---       #5597
      010075D2H   LINE      CODE     ---       #5598
      ---         BLOCKEND  ---      ---       LVL=0

      01007142H   BLOCK     CODE     ---       LVL=0
      01007142H   BLOCK     CODE     NEAR LAB  LVL=1
      020007BEH   SYMBOL    XDATA    DWORD     __nesc_temp
      ---         BLOCKEND  ---      ---       LVL=1
      01007142H   LINE      CODE     ---       #5604
      01007142H   LINE      CODE     ---       #5605
      01007142H   LINE      CODE     ---       #5608
      01007142H   LINE      CODE     ---       #5609
      0100714BH   LINE      CODE     ---       #5614
      01007159H   LINE      CODE     ---       #5615
      01007159H   LINE      CODE     ---       #5616
      ---         BLOCKEND  ---      ---       LVL=0

      0100715AH   BLOCK     CODE     ---       LVL=0
      0100715AH   BLOCK     CODE     NEAR LAB  LVL=1
      020007BAH   SYMBOL    XDATA    DWORD     __nesc_temp
      ---         BLOCKEND  ---      ---       LVL=1
      0100715AH   LINE      CODE     ---       #5621
      0100715AH   LINE      CODE     ---       #5622
      0100715AH   LINE      CODE     ---       #5625
      0100715AH   LINE      CODE     ---       #5626
      01007163H   LINE      CODE     ---       #5631
      01007171H   LINE      CODE     ---       #5632
      01007171H   LINE      CODE     ---       #5633
      ---         BLOCKEND  ---      ---       LVL=0

      010051EDH   BLOCK     CODE     ---       LVL=0
      02000735H   SYMBOL    XDATA    BYTE      num
      02000736H   SYMBOL    XDATA    DWORD     dt
      010051F2H   BLOCK     CODE     NEAR LAB  LVL=1
      0200073AH   SYMBOL    XDATA    BYTE      __nesc_atomic
      ---         BLOCKEND  ---      ---       LVL=1
      010051EDH   LINE      CODE     ---       #5638
      010051F2H   LINE      CODE     ---       #5639
      010051F2H   LINE      CODE     ---       #5640
      010051FAH   LINE      CODE     ---       #5642
      010051FAH   LINE      CODE     ---       #5644
      010051FAH   LINE      CODE     ---       #5646
      0100520BH   LINE      CODE     ---       #5648
      0100520BH   LINE      CODE     ---       #5650
      01005236H   LINE      CODE     ---       #5651
      01005236H   LINE      CODE     ---       #5653
      01005239H   LINE      CODE     ---       #5654
      01005239H   LINE      CODE     ---       #5655
      01005239H   LINE      CODE     ---       #5656
      01005239H   LINE      CODE     ---       #5659
      01005263H   LINE      CODE     ---       #5660
      01005263H   LINE      CODE     ---       #5662
      ---         BLOCKEND  ---      ---       LVL=0

      0100742DH   BLOCK     CODE     ---       LVL=0
LX51 LINKER/LOCATER V4.41                                                             05/23/2018  09:43:07  PAGE 63


      0100742DH   LINE      CODE     ---       #5668
      0100742DH   LINE      CODE     ---       #5669
      0100742DH   LINE      CODE     ---       #5670
      ---         BLOCKEND  ---      ---       LVL=0

      01005905H   BLOCK     CODE     ---       LVL=0
      02000738H   SYMBOL    XDATA    WORD      addr
      0200073AH   SYMBOL    XDATA    ---       msg
      0200073DH   SYMBOL    XDATA    BYTE      len
      01005908H   BLOCK     CODE     NEAR LAB  LVL=1
      0200073EH   SYMBOL    XDATA    BYTE      __nesc_atomic
      ---         BLOCKEND  ---      ---       LVL=1
      01005905H   LINE      CODE     ---       #5678
      01005908H   LINE      CODE     ---       #5679
      01005908H   LINE      CODE     ---       #5680
      01005910H   LINE      CODE     ---       #5682
      01005925H   LINE      CODE     ---       #5683
      0100593AH   LINE      CODE     ---       #5684
      0100593AH   LINE      CODE     ---       #5686
      01005942H   LINE      CODE     ---       #5688
      0100595EH   LINE      CODE     ---       #5689
      ---         BLOCKEND  ---      ---       LVL=0

      01006CECH   BLOCK     CODE     ---       LVL=0
      02000735H   SYMBOL    XDATA    ---       msg
      01006CECH   LINE      CODE     ---       #5694
      01006CF7H   LINE      CODE     ---       #5695
      01006CF7H   LINE      CODE     ---       #5696
      01006D11H   LINE      CODE     ---       #5697
      01006D11H   LINE      CODE     ---       #5698
      01006D11H   LINE      CODE     ---       #5699
      ---         BLOCKEND  ---      ---       LVL=0

      0100766AH   BLOCK     CODE     ---       LVL=0
      0100766AH   LINE      CODE     ---       #5702
      0100766AH   LINE      CODE     ---       #5703
      0100766AH   LINE      CODE     ---       #5704
      ---         BLOCKEND  ---      ---       LVL=0

      0100636EH   BLOCK     CODE     ---       LVL=0
      0100636EH   BLOCK     CODE     NEAR LAB  LVL=1
      02000735H   SYMBOL    XDATA    DWORD     i
      02000739H   SYMBOL    XDATA    BYTE      result
      ---         BLOCKEND  ---      ---       LVL=1
      0100636EH   LINE      CODE     ---       #5708
      0100636EH   LINE      CODE     ---       #5709
      0100636EH   LINE      CODE     ---       #5710
      01006378H   LINE      CODE     ---       #5711
      0100637EH   LINE      CODE     ---       #5714
      01006381H   LINE      CODE     ---       #5717
      01006394H   LINE      CODE     ---       #5718
      01006394H   LINE      CODE     ---       #5719
      01006399H   LINE      CODE     ---       #5720
      01006399H   LINE      CODE     ---       #5721
      0100639EH   LINE      CODE     ---       #5722
      0100639EH   LINE      CODE     ---       #5723
      0100639EH   LINE      CODE     ---       #5724
      0100639EH   LINE      CODE     ---       #5727
      0100639EH   LINE      CODE     ---       #5729
      010063A1H   LINE      CODE     ---       #5731
      010063A4H   LINE      CODE     ---       #5732
      010063A4H   LINE      CODE     ---       #5733
      010063A4H   LINE      CODE     ---       #5737
      010063A9H   LINE      CODE     ---       #5738
      ---         BLOCKEND  ---      ---       LVL=0
LX51 LINKER/LOCATER V4.41                                                             05/23/2018  09:43:07  PAGE 64



      01005BB7H   BLOCK     CODE     ---       LVL=0
      01005BB7H   BLOCK     CODE     NEAR LAB  LVL=1
      00000005H   SYMBOL    DATA     BYTE      result
      ---         BLOCKEND  ---      ---       LVL=1
      01005BB7H   LINE      CODE     ---       #5743
      01005BB7H   LINE      CODE     ---       #5744
      01005BB7H   LINE      CODE     ---       #5745
      01005BBCH   LINE      CODE     ---       #5747
      01005BCCH   LINE      CODE     ---       #5748
      01005BCCH   LINE      CODE     ---       #5749
      01005BD2H   LINE      CODE     ---       #5750
      01005BD4H   LINE      CODE     ---       #5752
      01005BD4H   LINE      CODE     ---       #5753
      01005BE2H   LINE      CODE     ---       #5754
      01005BE2H   LINE      CODE     ---       #5755
      01005BF1H   LINE      CODE     ---       #5756
      01005BF3H   LINE      CODE     ---       #5758
      01005BF3H   LINE      CODE     ---       #5759
      01005BFCH   LINE      CODE     ---       #5760
      01005BFCH   LINE      CODE     ---       #5761
      01005BFCH   LINE      CODE     ---       #5763
      01005BFFH   LINE      CODE     ---       #5764
      01005BFFH   LINE      CODE     ---       #5765
      01005BFFH   LINE      CODE     ---       #5766
      01005C01H   LINE      CODE     ---       #5768
      01005C01H   LINE      CODE     ---       #5769
      01005C06H   LINE      CODE     ---       #5770
      01005C06H   LINE      CODE     ---       #5771
      ---         BLOCKEND  ---      ---       LVL=0

      01006DCBH   BLOCK     CODE     ---       LVL=0
      0200073CH   SYMBOL    XDATA    ---       msg
      00000005H   SYMBOL    DATA     BYTE      result
      01006DCBH   LINE      CODE     ---       #5776
      01006DD6H   LINE      CODE     ---       #5777
      01006DD6H   LINE      CODE     ---       #5778
      ---         BLOCKEND  ---      ---       LVL=0

      01004FDFH   BLOCK     CODE     ---       LVL=0
      00000001H   SYMBOL    DATA     ---       msg
      02000735H   SYMBOL    XDATA    BYTE      result
      01004FE4H   BLOCK     CODE     NEAR LAB  LVL=1
      02000736H   SYMBOL    XDATA    BYTE      __nesc_atomic
      02000736H   SYMBOL    XDATA    BYTE      __nesc_atomic
      ---         BLOCKEND  ---      ---       LVL=1
      0100501FH   BLOCK     CODE     NEAR LAB  LVL=1
      02000736H   SYMBOL    XDATA    BYTE      __nesc_atomic
      ---         BLOCKEND  ---      ---       LVL=1
      01005051H   BLOCK     CODE     NEAR LAB  LVL=1
      02000736H   SYMBOL    XDATA    BYTE      __nesc_atomic
      ---         BLOCKEND  ---      ---       LVL=1
      01004FDFH   LINE      CODE     ---       #5784
      01004FE4H   LINE      CODE     ---       #5785
      01004FE4H   LINE      CODE     ---       #5786
      01004FEAH   LINE      CODE     ---       #5788
      01004FF0H   LINE      CODE     ---       #5789
      01004FF0H   LINE      CODE     ---       #5791
      01004FF8H   LINE      CODE     ---       #5794
      01004FF8H   LINE      CODE     ---       #5795
      01004FF8H   LINE      CODE     ---       #5796
      01004FF8H   LINE      CODE     ---       #5798
      01005000H   LINE      CODE     ---       #5799
      01005008H   LINE      CODE     ---       #5801
      0100500EH   LINE      CODE     ---       #5802
LX51 LINKER/LOCATER V4.41                                                             05/23/2018  09:43:07  PAGE 65


      0100500EH   LINE      CODE     ---       #5803
      0100500EH   LINE      CODE     ---       #5805
      0100500EH   LINE      CODE     ---       #5807
      0100501FH   LINE      CODE     ---       #5809
      01005027H   LINE      CODE     ---       #5813
      0100504BH   LINE      CODE     ---       #5814
      0100504BH   LINE      CODE     ---       #5816
      0100504EH   LINE      CODE     ---       #5818
      01005051H   LINE      CODE     ---       #5819
      01005051H   LINE      CODE     ---       #5820
      01005051H   LINE      CODE     ---       #5821
      01005051H   LINE      CODE     ---       #5824
      01005051H   LINE      CODE     ---       #5827
      01005059H   LINE      CODE     ---       #5829
      0100505EH   LINE      CODE     ---       #5831
      01005061H   LINE      CODE     ---       #5832
      01005066H   LINE      CODE     ---       #5833
      ---         BLOCKEND  ---      ---       LVL=0

      01006F5BH   BLOCK     CODE     ---       LVL=0
      01006F5BH   LINE      CODE     ---       #5838
      01006F5BH   LINE      CODE     ---       #5839
      01006F5BH   LINE      CODE     ---       #5842
      01006F69H   LINE      CODE     ---       #5843
      01006F69H   LINE      CODE     ---       #5845
      01006F78H   LINE      CODE     ---       #5846
      01006F78H   LINE      CODE     ---       #5847
      ---         BLOCKEND  ---      ---       LVL=0

      0100743CH   BLOCK     CODE     ---       LVL=0
      02000744H   SYMBOL    XDATA    ---       msg
      02000747H   SYMBOL    XDATA    BYTE      result
      0100743CH   LINE      CODE     ---       #5850
      0100744AH   LINE      CODE     ---       #5851
      0100744AH   LINE      CODE     ---       #5852
      ---         BLOCKEND  ---      ---       LVL=0

      01007733H   BLOCK     CODE     ---       LVL=0
      00000001H   SYMBOL    DATA     ---       msg
      00000005H   SYMBOL    DATA     BYTE      error
      01007733H   LINE      CODE     ---       #5857
      01007733H   LINE      CODE     ---       #5858
      01007733H   LINE      CODE     ---       #5862
      ---         BLOCKEND  ---      ---       LVL=0

      0100744BH   BLOCK     CODE     ---       LVL=0
      02000744H   SYMBOL    XDATA    ---       msg
      02000747H   SYMBOL    XDATA    BYTE      result
      0100744BH   LINE      CODE     ---       #5866
      01007459H   LINE      CODE     ---       #5867
      01007459H   LINE      CODE     ---       #5868
      ---         BLOCKEND  ---      ---       LVL=0

      01007736H   BLOCK     CODE     ---       LVL=0
      00000001H   SYMBOL    DATA     ---       msg
      00000005H   SYMBOL    DATA     BYTE      error
      01007736H   LINE      CODE     ---       #5873
      01007736H   LINE      CODE     ---       #5874
      01007736H   LINE      CODE     ---       #5878
      ---         BLOCKEND  ---      ---       LVL=0

      01005A6BH   BLOCK     CODE     ---       LVL=0
      02000744H   SYMBOL    XDATA    ---       msg
      02000747H   SYMBOL    XDATA    BYTE      error
      01005A85H   BLOCK     CODE     NEAR LAB  LVL=1
LX51 LINKER/LOCATER V4.41                                                             05/23/2018  09:43:07  PAGE 66


      02000748H   SYMBOL    XDATA    ---       header
      ---         BLOCKEND  ---      ---       LVL=1
      01005A6BH   LINE      CODE     ---       #5884
      01005A79H   LINE      CODE     ---       #5885
      01005A79H   LINE      CODE     ---       #5886
      01005A7FH   LINE      CODE     ---       #5887
      01005A7FH   LINE      CODE     ---       #5888
      01005A85H   LINE      CODE     ---       #5889
      01005A85H   LINE      CODE     ---       #5890
      01005A96H   LINE      CODE     ---       #5893
      01005A9EH   LINE      CODE     ---       #5894
      01005A9EH   LINE      CODE     ---       #5895
      01005AADH   LINE      CODE     ---       #5897
      01005AADH   LINE      CODE     ---       #5898
      01005AADH   LINE      CODE     ---       #5900
      01005ABEH   LINE      CODE     ---       #5901
      01005ABEH   LINE      CODE     ---       #5902
      ---         BLOCKEND  ---      ---       LVL=0

      01007739H   BLOCK     CODE     ---       LVL=0
      00000001H   SYMBOL    DATA     ---       msg
      00000005H   SYMBOL    DATA     BYTE      error
      01007739H   LINE      CODE     ---       #5907
      01007739H   LINE      CODE     ---       #5908
      01007739H   LINE      CODE     ---       #5912
      ---         BLOCKEND  ---      ---       LVL=0

      01005ABFH   BLOCK     CODE     ---       LVL=0
      02000744H   SYMBOL    XDATA    ---       msg
      02000747H   SYMBOL    XDATA    BYTE      error
      01005AD9H   BLOCK     CODE     NEAR LAB  LVL=1
      02000748H   SYMBOL    XDATA    ---       header
      ---         BLOCKEND  ---      ---       LVL=1
      01005ABFH   LINE      CODE     ---       #5922
      01005ACDH   LINE      CODE     ---       #5923
      01005ACDH   LINE      CODE     ---       #5924
      01005AD3H   LINE      CODE     ---       #5925
      01005AD3H   LINE      CODE     ---       #5926
      01005AD9H   LINE      CODE     ---       #5927
      01005AD9H   LINE      CODE     ---       #5928
      01005AEAH   LINE      CODE     ---       #5931
      01005AF2H   LINE      CODE     ---       #5932
      01005AF2H   LINE      CODE     ---       #5933
      01005B01H   LINE      CODE     ---       #5935
      01005B01H   LINE      CODE     ---       #5936
      01005B01H   LINE      CODE     ---       #5938
      01005B12H   LINE      CODE     ---       #5939
      01005B12H   LINE      CODE     ---       #5940
      ---         BLOCKEND  ---      ---       LVL=0

      0100773CH   BLOCK     CODE     ---       LVL=0
      00000001H   SYMBOL    DATA     ---       msg
      00000005H   SYMBOL    DATA     BYTE      error
      0100773CH   LINE      CODE     ---       #5945
      0100773CH   LINE      CODE     ---       #5946
      0100773CH   LINE      CODE     ---       #5950
      ---         BLOCKEND  ---      ---       LVL=0

      01006680H   BLOCK     CODE     ---       LVL=0
      01006680H   LINE      CODE     ---       #5958
      01006680H   LINE      CODE     ---       #5959
      01006680H   LINE      CODE     ---       #5960
      01006694H   LINE      CODE     ---       #5961
      01006696H   LINE      CODE     ---       #5963
      01006698H   LINE      CODE     ---       #5964
LX51 LINKER/LOCATER V4.41                                                             05/23/2018  09:43:07  PAGE 67


      01006698H   LINE      CODE     ---       #5966
      010066ABH   LINE      CODE     ---       #5967
      010066B2H   LINE      CODE     ---       #5968
      ---         BLOCKEND  ---      ---       LVL=0

      01007172H   BLOCK     CODE     ---       LVL=0
      01007172H   BLOCK     CODE     NEAR LAB  LVL=1
      0200074BH   SYMBOL    XDATA    DWORD     __nesc_temp
      ---         BLOCKEND  ---      ---       LVL=1
      01007172H   LINE      CODE     ---       #5973
      01007172H   LINE      CODE     ---       #5974
      01007172H   LINE      CODE     ---       #5977
      01007172H   LINE      CODE     ---       #5978
      0100717BH   LINE      CODE     ---       #5983
      01007189H   LINE      CODE     ---       #5984
      01007189H   LINE      CODE     ---       #5985
      ---         BLOCKEND  ---      ---       LVL=0

      01006F97H   BLOCK     CODE     ---       LVL=0
      00000004H   SYMBOL    DATA     DWORD     t0
      0200074FH   SYMBOL    XDATA    DWORD     dt
      01006F97H   LINE      CODE     ---       #5988
      01006F97H   LINE      CODE     ---       #5989
      01006F97H   LINE      CODE     ---       #5991
      01006F97H   LINE      CODE     ---       #5992
      01006F9DH   LINE      CODE     ---       #5993
      01006FB1H   LINE      CODE     ---       #5994
      ---         BLOCKEND  ---      ---       LVL=0

      0100696CH   BLOCK     CODE     ---       LVL=0
      02000747H   SYMBOL    XDATA    DWORD     dt
      0100696CH   LINE      CODE     ---       #5998
      01006972H   LINE      CODE     ---       #5999
      01006972H   LINE      CODE     ---       #6002
      ---         BLOCKEND  ---      ---       LVL=0

      01006ADBH   BLOCK     CODE     ---       LVL=0
      02000747H   SYMBOL    XDATA    ---       buf
      00000005H   SYMBOL    DATA     BYTE      len
      01006AE6H   BLOCK     CODE     NEAR LAB  LVL=1
      00000007H   SYMBOL    DATA     BYTE      i
      ---         BLOCKEND  ---      ---       LVL=1
      01006ADBH   LINE      CODE     ---       #6008
      01006AE6H   LINE      CODE     ---       #6009
      01006AE6H   LINE      CODE     ---       #6013
      01006AEDH   LINE      CODE     ---       #6014
      01006AEDH   LINE      CODE     ---       #6015
      01006B02H   LINE      CODE     ---       #6016
      01006B05H   LINE      CODE     ---       #6017
      ---         BLOCKEND  ---      ---       LVL=0

      0100722CH   BLOCK     CODE     ---       LVL=0
      00000001H   SYMBOL    DATA     ---       packet
      00000005H   SYMBOL    DATA     BYTE      len
      0100722CH   LINE      CODE     ---       #6020
      0100722CH   LINE      CODE     ---       #6021
      0100722CH   LINE      CODE     ---       #6023
      0100722CH   LINE      CODE     ---       #6025
      0100722FH   LINE      CODE     ---       #6026
      0100722FH   LINE      CODE     ---       #6027
      0100722FH   LINE      CODE     ---       #6032
      0100722FH   LINE      CODE     ---       #6034
      01007232H   LINE      CODE     ---       #6036
      01007235H   LINE      CODE     ---       #6037
      01007235H   LINE      CODE     ---       #6038
LX51 LINKER/LOCATER V4.41                                                             05/23/2018  09:43:07  PAGE 68


      01007235H   LINE      CODE     ---       #6042
      01007239H   LINE      CODE     ---       #6043
      0100723CH   LINE      CODE     ---       #6045
      0100723FH   LINE      CODE     ---       #6047
      01007241H   LINE      CODE     ---       #6048
      ---         BLOCKEND  ---      ---       LVL=0

      01004B85H   BLOCK     CODE     ---       LVL=0
      0200073CH   SYMBOL    XDATA    ---       msg
      0200073FH   SYMBOL    XDATA    BYTE      len
      01004B93H   BLOCK     CODE     NEAR LAB  LVL=1
      02000740H   SYMBOL    XDATA    ---       __nesc_temp45
      02000743H   SYMBOL    XDATA    ---       __nesc_temp44
      01004BA1H   BLOCK     CODE     NEAR LAB  LVL=2
      02000746H   SYMBOL    XDATA    BYTE      __nesc_temp
      ---         BLOCKEND  ---      ---       LVL=2
      ---         BLOCKEND  ---      ---       LVL=1
      01004B85H   LINE      CODE     ---       #6053
      01004B93H   LINE      CODE     ---       #6054
      01004B93H   LINE      CODE     ---       #6055
      01004B93H   LINE      CODE     ---       #6061
      01004BA1H   LINE      CODE     ---       #6062
      01004BA1H   LINE      CODE     ---       #6063
      01004BA1H   LINE      CODE     ---       #6064
      01004BA6H   LINE      CODE     ---       #6069
      01004BA8H   LINE      CODE     ---       #6070
      01004BA8H   LINE      CODE     ---       #6071
      01004BA8H   LINE      CODE     ---       #6072
      01004BBDH   LINE      CODE     ---       #6073
      01004BC2H   LINE      CODE     ---       #6074
      01004BC6H   LINE      CODE     ---       #6075
      01004BCAH   LINE      CODE     ---       #6076
      01004BD0H   LINE      CODE     ---       #6078
      01004BEEH   LINE      CODE     ---       #6079
      01004C0CH   LINE      CODE     ---       #6080
      01004C2CH   LINE      CODE     ---       #6084
      01004C32H   LINE      CODE     ---       #6085
      01004C32H   LINE      CODE     ---       #6087
      01004C34H   LINE      CODE     ---       #6088
      ---         BLOCKEND  ---      ---       LVL=0

      010073FDH   BLOCK     CODE     ---       LVL=0
      010073FDH   BLOCK     CODE     NEAR LAB  LVL=1
      02000742H   SYMBOL    XDATA    BYTE      __nesc_temp
      ---         BLOCKEND  ---      ---       LVL=1
      010073FDH   LINE      CODE     ---       #6093
      010073FDH   LINE      CODE     ---       #6094
      010073FDH   LINE      CODE     ---       #6096
      010073FDH   LINE      CODE     ---       #6097
      010073FDH   LINE      CODE     ---       #6098
      0100740CH   LINE      CODE     ---       #6103
      0100740CH   LINE      CODE     ---       #6104
      0100740CH   LINE      CODE     ---       #6105
      0100740CH   LINE      CODE     ---       #6106
      ---         BLOCKEND  ---      ---       LVL=0

      01006D37H   BLOCK     CODE     ---       LVL=0
      01006D37H   BLOCK     CODE     NEAR LAB  LVL=1
      02000742H   SYMBOL    XDATA    ---       __nesc_temp
      ---         BLOCKEND  ---      ---       LVL=1
      01006D37H   LINE      CODE     ---       #6109
      01006D37H   LINE      CODE     ---       #6110
      01006D37H   LINE      CODE     ---       #6112
      01006D37H   LINE      CODE     ---       #6113
      01006D37H   LINE      CODE     ---       #6114
LX51 LINKER/LOCATER V4.41                                                             05/23/2018  09:43:07  PAGE 69


      01006D5BH   LINE      CODE     ---       #6119
      01006D5BH   LINE      CODE     ---       #6120
      01006D5BH   LINE      CODE     ---       #6121
      01006D5BH   LINE      CODE     ---       #6122
      ---         BLOCKEND  ---      ---       LVL=0

      01006498H   BLOCK     CODE     ---       LVL=0
      01006498H   BLOCK     CODE     NEAR LAB  LVL=1
      0200073CH   SYMBOL    XDATA    ---       t
      010064BCH   BLOCK     CODE     NEAR LAB  LVL=2
      0200073FH   SYMBOL    XDATA    ---       __nesc_temp
      ---         BLOCKEND  ---      ---       LVL=2
      ---         BLOCKEND  ---      ---       LVL=1
      01006498H   LINE      CODE     ---       #6125
      01006498H   LINE      CODE     ---       #6126
      01006498H   LINE      CODE     ---       #6128
      01006498H   LINE      CODE     ---       #6129
      010064A6H   LINE      CODE     ---       #6132
      010064ACH   LINE      CODE     ---       #6133
      010064ACH   LINE      CODE     ---       #6134
      010064B2H   LINE      CODE     ---       #6135
      010064B6H   LINE      CODE     ---       #6136
      010064BCH   LINE      CODE     ---       #6137
      010064BCH   LINE      CODE     ---       #6139
      010064BCH   LINE      CODE     ---       #6140
      010064D0H   LINE      CODE     ---       #6145
      010064D0H   LINE      CODE     ---       #6146
      010064D0H   LINE      CODE     ---       #6147
      010064D0H   LINE      CODE     ---       #6148
      ---         BLOCKEND  ---      ---       LVL=0

      0100526BH   BLOCK     CODE     ---       LVL=0
      0100526BH   BLOCK     CODE     NEAR LAB  LVL=1
      00000007H   SYMBOL    DATA     BYTE      result
      02000735H   SYMBOL    XDATA    ---       msg
      02000738H   SYMBOL    XDATA    ---       header
      0100526BH   BLOCK     CODE     NEAR LAB  LVL=2
      0200073BH   SYMBOL    XDATA    BYTE      __nesc_atomic
      ---         BLOCKEND  ---      ---       LVL=2
      ---         BLOCKEND  ---      ---       LVL=1
      0100526BH   LINE      CODE     ---       #6155
      0100526BH   LINE      CODE     ---       #6156
      0100526BH   LINE      CODE     ---       #6157
      0100526BH   LINE      CODE     ---       #6161
      01005273H   LINE      CODE     ---       #6163
      01005279H   LINE      CODE     ---       #6164
      01005279H   LINE      CODE     ---       #6166
      0100527BH   LINE      CODE     ---       #6169
      0100527BH   LINE      CODE     ---       #6170
      0100527BH   LINE      CODE     ---       #6172
      01005281H   LINE      CODE     ---       #6173
      01005281H   LINE      CODE     ---       #6174
      01005281H   LINE      CODE     ---       #6176
      01005283H   LINE      CODE     ---       #6179
      01005283H   LINE      CODE     ---       #6180
      01005283H   LINE      CODE     ---       #6182
      01005291H   LINE      CODE     ---       #6186
      0100529FH   LINE      CODE     ---       #6187
      0100529FH   LINE      CODE     ---       #6192
      0100529FH   LINE      CODE     ---       #6194
      010052A2H   LINE      CODE     ---       #6195
      010052A2H   LINE      CODE     ---       #6197
      010052A4H   LINE      CODE     ---       #6200
      010052A4H   LINE      CODE     ---       #6201
      010052A4H   LINE      CODE     ---       #6202
LX51 LINKER/LOCATER V4.41                                                             05/23/2018  09:43:07  PAGE 70


      010052C2H   LINE      CODE     ---       #6203
      010052C5H   LINE      CODE     ---       #6204
      010052C5H   LINE      CODE     ---       #6205
      010052CAH   LINE      CODE     ---       #6206
      010052CCH   LINE      CODE     ---       #6208
      010052CCH   LINE      CODE     ---       #6211
      010052DCH   LINE      CODE     ---       #6212
      010052DDH   LINE      CODE     ---       #6214
      010052E0H   LINE      CODE     ---       #6215
      010052E0H   LINE      CODE     ---       #6216
      010052E0H   LINE      CODE     ---       #6218
      010052E8H   LINE      CODE     ---       #6219
      ---         BLOCKEND  ---      ---       LVL=0

      01004F4DH   BLOCK     CODE     ---       LVL=0
      0200075FH   SYMBOL    XDATA    WORD      t0
      02000761H   SYMBOL    XDATA    WORD      dt
      01004F5BH   BLOCK     CODE     NEAR LAB  LVL=1
      02000763H   SYMBOL    XDATA    WORD      set
      00000004H   SYMBOL    DATA     WORD      now
      00000006H   SYMBOL    DATA     WORD      elapsed
      01004F8FH   BLOCK     CODE     NEAR LAB  LVL=2
      02000765H   SYMBOL    XDATA    WORD      remaining
      ---         BLOCKEND  ---      ---       LVL=2
      ---         BLOCKEND  ---      ---       LVL=1
      01004F4DH   LINE      CODE     ---       #6232
      01004F5BH   LINE      CODE     ---       #6233
      01004F5BH   LINE      CODE     ---       #6234
      01004F5BH   LINE      CODE     ---       #6243
      01004F5BH   LINE      CODE     ---       #6245
      01004F61H   LINE      CODE     ---       #6247
      01004F6BH   LINE      CODE     ---       #6248
      01004F6BH   LINE      CODE     ---       #6252
      01004F7AH   LINE      CODE     ---       #6254
      01004F87H   LINE      CODE     ---       #6255
      01004F87H   LINE      CODE     ---       #6256
      01004F8DH   LINE      CODE     ---       #6257
      01004F8FH   LINE      CODE     ---       #6259
      01004F8FH   LINE      CODE     ---       #6260
      01004FA3H   LINE      CODE     ---       #6263
      01004FABH   LINE      CODE     ---       #6264
      01004FB1H   LINE      CODE     ---       #6265
      01004FB3H   LINE      CODE     ---       #6267
      01004FB3H   LINE      CODE     ---       #6268
      01004FC9H   LINE      CODE     ---       #6269
      01004FC9H   LINE      CODE     ---       #6270
      01004FC9H   LINE      CODE     ---       #6272
      01004FC9H   LINE      CODE     ---       #6274
      01004FCCH   LINE      CODE     ---       #6276
      01004FD5H   LINE      CODE     ---       #6278
      01004FD8H   LINE      CODE     ---       #6280
      01004FDBH   LINE      CODE     ---       #6281
      01004FDBH   LINE      CODE     ---       #6285
      01004FDEH   LINE      CODE     ---       #6286
      01004FDEH   LINE      CODE     ---       #6287
      ---         BLOCKEND  ---      ---       LVL=0

      01007330H   BLOCK     CODE     ---       LVL=0
      00000001H   SYMBOL    DATA     ---       msg
      00000005H   SYMBOL    DATA     BYTE      error
      01007330H   LINE      CODE     ---       #6294
      01007330H   LINE      CODE     ---       #6295
      01007330H   LINE      CODE     ---       #6296
      01007336H   LINE      CODE     ---       #6297
      01007336H   LINE      CODE     ---       #6298
LX51 LINKER/LOCATER V4.41                                                             05/23/2018  09:43:07  PAGE 71


      01007339H   LINE      CODE     ---       #6299
      01007339H   LINE      CODE     ---       #6300
      0100733CH   LINE      CODE     ---       #6301
      0100733CH   LINE      CODE     ---       #6303
      0100733CH   LINE      CODE     ---       #6304
      01007341H   LINE      CODE     ---       #6305
      01007341H   LINE      CODE     ---       #6306
      01007341H   LINE      CODE     ---       #6307
      ---         BLOCKEND  ---      ---       LVL=0

      010060D6H   BLOCK     CODE     ---       LVL=0
      010060D6H   BLOCK     CODE     NEAR LAB  LVL=1
      00000001H   SYMBOL    DATA     ---       msg
      00000006H   SYMBOL    DATA     BYTE      result
      010060D6H   BLOCK     CODE     NEAR LAB  LVL=2
      02000735H   SYMBOL    XDATA    BYTE      __nesc_atomic
      02000735H   SYMBOL    XDATA    BYTE      __nesc_atomic
      ---         BLOCKEND  ---      ---       LVL=2
      0100610AH   BLOCK     CODE     NEAR LAB  LVL=2
      02000735H   SYMBOL    XDATA    BYTE      __nesc_atomic
      ---         BLOCKEND  ---      ---       LVL=2
      ---         BLOCKEND  ---      ---       LVL=1
      010060D6H   LINE      CODE     ---       #6312
      010060D6H   LINE      CODE     ---       #6313
      010060D6H   LINE      CODE     ---       #6314
      010060D6H   LINE      CODE     ---       #6317
      010060DEH   LINE      CODE     ---       #6319
      010060E4H   LINE      CODE     ---       #6320
      010060E4H   LINE      CODE     ---       #6321
      010060E4H   LINE      CODE     ---       #6323
      010060EBH   LINE      CODE     ---       #6326
      010060EBH   LINE      CODE     ---       #6327
      010060EBH   LINE      CODE     ---       #6328
      010060F6H   LINE      CODE     ---       #6329
      010060FBH   LINE      CODE     ---       #6330
      010060FBH   LINE      CODE     ---       #6332
      01006103H   LINE      CODE     ---       #6334
      0100610AH   LINE      CODE     ---       #6335
      01006112H   LINE      CODE     ---       #6337
      01006117H   LINE      CODE     ---       #6339
      0100611AH   LINE      CODE     ---       #6340
      ---         BLOCKEND  ---      ---       LVL=0

      01005774H   BLOCK     CODE     ---       LVL=0
      02000737H   SYMBOL    XDATA    ---       msg
      00000005H   SYMBOL    DATA     BYTE      success
      01005790H   BLOCK     CODE     NEAR LAB  LVL=1
      0200073AH   SYMBOL    XDATA    BYTE      __nesc_atomic
      ---         BLOCKEND  ---      ---       LVL=1
      01005774H   LINE      CODE     ---       #6345
      0100577FH   LINE      CODE     ---       #6346
      0100577FH   LINE      CODE     ---       #6347
      0100577FH   LINE      CODE     ---       #6349
      0100577FH   LINE      CODE     ---       #6351
      01005790H   LINE      CODE     ---       #6353
      01005798H   LINE      CODE     ---       #6357
      010057C9H   LINE      CODE     ---       #6358
      010057C9H   LINE      CODE     ---       #6360
      010057CCH   LINE      CODE     ---       #6362
      010057CFH   LINE      CODE     ---       #6363
      010057CFH   LINE      CODE     ---       #6364
      010057CFH   LINE      CODE     ---       #6365
      010057CFH   LINE      CODE     ---       #6369
      010057D4H   LINE      CODE     ---       #6370
      010057D8H   LINE      CODE     ---       #6372
LX51 LINKER/LOCATER V4.41                                                             05/23/2018  09:43:07  PAGE 72


      ---         BLOCKEND  ---      ---       LVL=0

      01005F7BH   BLOCK     CODE     ---       LVL=0
      01005F7BH   BLOCK     CODE     NEAR LAB  LVL=1
      02000735H   SYMBOL    XDATA    BYTE      __nesc_atomic
      ---         BLOCKEND  ---      ---       LVL=1
      01005F7BH   LINE      CODE     ---       #6378
      01005F7BH   LINE      CODE     ---       #6379
      01005F7BH   LINE      CODE     ---       #6380
      01005F83H   LINE      CODE     ---       #6382
      01005F89H   LINE      CODE     ---       #6383
      01005F89H   LINE      CODE     ---       #6384
      01005F89H   LINE      CODE     ---       #6386
      01005F8BH   LINE      CODE     ---       #6389
      01005F8BH   LINE      CODE     ---       #6390
      01005F8BH   LINE      CODE     ---       #6391
      01005F98H   LINE      CODE     ---       #6392
      01005F98H   LINE      CODE     ---       #6393
      01005FA1H   LINE      CODE     ---       #6394
      01005FA1H   LINE      CODE     ---       #6396
      01005FA6H   LINE      CODE     ---       #6397
      01005FA6H   LINE      CODE     ---       #6398
      01005FA8H   LINE      CODE     ---       #6400
      01005FA8H   LINE      CODE     ---       #6402
      01005FB8H   LINE      CODE     ---       #6403
      01005FB8H   LINE      CODE     ---       #6404
      01005FB8H   LINE      CODE     ---       #6406
      01005FC0H   LINE      CODE     ---       #6407
      ---         BLOCKEND  ---      ---       LVL=0

      01005A13H   BLOCK     CODE     ---       LVL=0
      0200075DH   SYMBOL    XDATA    WORD      addr
      0200075FH   SYMBOL    XDATA    ---       msg
      02000762H   SYMBOL    XDATA    BYTE      len
      01005A13H   LINE      CODE     ---       #6416
      01005A24H   LINE      CODE     ---       #6417
      01005A24H   LINE      CODE     ---       #6419
      01005A24H   LINE      CODE     ---       #6420
      01005A39H   LINE      CODE     ---       #6421
      01005A4EH   LINE      CODE     ---       #6422
      01005A4EH   LINE      CODE     ---       #6424
      01005A6AH   LINE      CODE     ---       #6425
      ---         BLOCKEND  ---      ---       LVL=0

      0100464DH   BLOCK     CODE     ---       LVL=0
      0200074FH   SYMBOL    XDATA    WORD      addr
      02000751H   SYMBOL    XDATA    ---       msg
      02000754H   SYMBOL    XDATA    BYTE      len
      0100465EH   BLOCK     CODE     NEAR LAB  LVL=1
      02000755H   SYMBOL    XDATA    BYTE      result
      0100465EH   BLOCK     CODE     NEAR LAB  LVL=2
      02000756H   SYMBOL    XDATA    ---       header
      02000759H   SYMBOL    XDATA    ---       meta_data
      0100468DH   BLOCK     CODE     NEAR LAB  LVL=3
      0200075CH   SYMBOL    XDATA    BYTE      __nesc_temp
      ---         BLOCKEND  ---      ---       LVL=3
      01004712H   BLOCK     CODE     NEAR LAB  LVL=3
      0200075CH   SYMBOL    XDATA    BYTE      __nesc_temp
      ---         BLOCKEND  ---      ---       LVL=3
      ---         BLOCKEND  ---      ---       LVL=2
      ---         BLOCKEND  ---      ---       LVL=1
      0100464DH   LINE      CODE     ---       #6430
      0100465EH   LINE      CODE     ---       #6431
      0100465EH   LINE      CODE     ---       #6432
      0100465EH   LINE      CODE     ---       #6436
LX51 LINKER/LOCATER V4.41                                                             05/23/2018  09:43:07  PAGE 73


      0100466CH   LINE      CODE     ---       #6437
      01004687H   LINE      CODE     ---       #6441
      0100468DH   LINE      CODE     ---       #6442
      0100468DH   LINE      CODE     ---       #6443
      0100468DH   LINE      CODE     ---       #6444
      01004693H   LINE      CODE     ---       #6449
      01004695H   LINE      CODE     ---       #6450
      01004695H   LINE      CODE     ---       #6451
      01004695H   LINE      CODE     ---       #6452
      010046B7H   LINE      CODE     ---       #6454
      010046BDH   LINE      CODE     ---       #6456
      010046E1H   LINE      CODE     ---       #6458
      010046F0H   LINE      CODE     ---       #6460
      010046F7H   LINE      CODE     ---       #6461
      010046F7H   LINE      CODE     ---       #6462
      0100470CH   LINE      CODE     ---       #6463
      01004712H   LINE      CODE     ---       #6464
      01004712H   LINE      CODE     ---       #6466
      01004712H   LINE      CODE     ---       #6467
      01004717H   LINE      CODE     ---       #6472
      01004717H   LINE      CODE     ---       #6473
      01004717H   LINE      CODE     ---       #6474
      01004717H   LINE      CODE     ---       #6475
      ---         BLOCKEND  ---      ---       LVL=0

      01006FB4H   BLOCK     CODE     ---       LVL=0
      00000004H   SYMBOL    DATA     DWORD     t0
      02000760H   SYMBOL    XDATA    DWORD     dt
      01006FB4H   LINE      CODE     ---       #6484
      01006FB4H   LINE      CODE     ---       #6485
      01006FB4H   LINE      CODE     ---       #6487
      01006FB4H   LINE      CODE     ---       #6488
      01006FBAH   LINE      CODE     ---       #6489
      01006FCEH   LINE      CODE     ---       #6490
      ---         BLOCKEND  ---      ---       LVL=0

      01005EA7H   BLOCK     CODE     ---       LVL=0
      02000753H   SYMBOL    XDATA    DWORD     t0
      02000757H   SYMBOL    XDATA    DWORD     dt
      0200075BH   SYMBOL    XDATA    BYTE      oneshot
      01005EA7H   LINE      CODE     ---       #6497
      01005EADH   LINE      CODE     ---       #6498
      01005EADH   LINE      CODE     ---       #6500
      01005EADH   LINE      CODE     ---       #6501
      01005EC1H   LINE      CODE     ---       #6502
      01005EC9H   LINE      CODE     ---       #6503
      ---         BLOCKEND  ---      ---       LVL=0

      010069FBH   BLOCK     CODE     ---       LVL=0
      00000004H   SYMBOL    DATA     DWORD     t0
      0200074FH   SYMBOL    XDATA    DWORD     dt
      010069FBH   LINE      CODE     ---       #6508
      010069FBH   LINE      CODE     ---       #6509
      010069FBH   LINE      CODE     ---       #6512
      ---         BLOCKEND  ---      ---       LVL=0

      0100772BH   BLOCK     CODE     ---       LVL=0
      0100772BH   LINE      CODE     ---       #6518
      0100772BH   LINE      CODE     ---       #6519
      0100772BH   LINE      CODE     ---       #6522
      0100772EH   LINE      CODE     ---       #6523
      ---         BLOCKEND  ---      ---       LVL=0

      0100773FH   BLOCK     CODE     ---       LVL=0
      0100773FH   LINE      CODE     ---       #6528
LX51 LINKER/LOCATER V4.41                                                             05/23/2018  09:43:07  PAGE 74


      0100773FH   LINE      CODE     ---       #6529
      0100773FH   LINE      CODE     ---       #6532
      ---         BLOCKEND  ---      ---       LVL=0

      01007742H   BLOCK     CODE     ---       LVL=0
      01007742H   LINE      CODE     ---       #6538
      01007742H   LINE      CODE     ---       #6539
      01007742H   LINE      CODE     ---       #6541
      01007742H   LINE      CODE     ---       #6542
      ---         BLOCKEND  ---      ---       LVL=0

      010028E6H   BLOCK     CODE     ---       LVL=0
      010028E6H   BLOCK     CODE     NEAR LAB  LVL=1
      02000735H   SYMBOL    XDATA    BYTE      __nesc_atomic
      010028EEH   BLOCK     CODE     NEAR LAB  LVL=2
      02000736H   SYMBOL    XDATA    DWORD     now
      0200073AH   SYMBOL    XDATA    LONG      min_remaining
      0200073EH   SYMBOL    XDATA    BYTE      min_remaining_isset
      0200073FH   SYMBOL    XDATA    BYTE      num
      0100294DH   BLOCK     CODE     NEAR LAB  LVL=3
      02000740H   SYMBOL    XDATA    ---       timer
      01002974H   BLOCK     CODE     NEAR LAB  LVL=4
      02000743H   SYMBOL    XDATA    DWORD     elapsed
      02000747H   SYMBOL    XDATA    LONG      remaining
      ---         BLOCKEND  ---      ---       LVL=4
      ---         BLOCKEND  ---      ---       LVL=3
      ---         BLOCKEND  ---      ---       LVL=2
      ---         BLOCKEND  ---      ---       LVL=1
      010028E6H   LINE      CODE     ---       #6549
      010028E6H   LINE      CODE     ---       #6550
      010028E6H   LINE      CODE     ---       #6551
      010028EEH   LINE      CODE     ---       #6557
      010028F7H   LINE      CODE     ---       #6558
      01002901H   LINE      CODE     ---       #6559
      01002906H   LINE      CODE     ---       #6564
      01002906H   LINE      CODE     ---       #6566
      01002917H   LINE      CODE     ---       #6568
      01002917H   LINE      CODE     ---       #6570
      01002935H   LINE      CODE     ---       #6571
      01002935H   LINE      CODE     ---       #6573
      01002938H   LINE      CODE     ---       #6574
      01002938H   LINE      CODE     ---       #6575
      01002938H   LINE      CODE     ---       #6576
      01002938H   LINE      CODE     ---       #6580
      0100293BH   LINE      CODE     ---       #6582
      0100294DH   LINE      CODE     ---       #6583
      0100294DH   LINE      CODE     ---       #6584
      01002965H   LINE      CODE     ---       #6587
      01002974H   LINE      CODE     ---       #6588
      01002974H   LINE      CODE     ---       #6589
      010029A1H   LINE      CODE     ---       #6590
      01002A07H   LINE      CODE     ---       #6594
      01002A07H   LINE      CODE     ---       #6596
      01002A18H   LINE      CODE     ---       #6598
      01002A18H   LINE      CODE     ---       #6600
      01002A57H   LINE      CODE     ---       #6601
      01002A57H   LINE      CODE     ---       #6603
      01002A5AH   LINE      CODE     ---       #6604
      01002A5AH   LINE      CODE     ---       #6605
      01002A5AH   LINE      CODE     ---       #6606
      01002A5AH   LINE      CODE     ---       #6610
      01002A7CH   LINE      CODE     ---       #6611
      01002A7CH   LINE      CODE     ---       #6612
      01002A90H   LINE      CODE     ---       #6613
      01002A96H   LINE      CODE     ---       #6614
LX51 LINKER/LOCATER V4.41                                                             05/23/2018  09:43:07  PAGE 75


      01002A96H   LINE      CODE     ---       #6615
      01002A96H   LINE      CODE     ---       #6616
      01002A9FH   LINE      CODE     ---       #6618
      01002A9FH   LINE      CODE     ---       #6620
      01002A9FH   LINE      CODE     ---       #6622
      01002AB0H   LINE      CODE     ---       #6624
      01002AB0H   LINE      CODE     ---       #6626
      01002AE5H   LINE      CODE     ---       #6627
      01002AE5H   LINE      CODE     ---       #6629
      01002AE8H   LINE      CODE     ---       #6630
      01002AE8H   LINE      CODE     ---       #6631
      01002AE8H   LINE      CODE     ---       #6632
      01002AE8H   LINE      CODE     ---       #6636
      01002AEEH   LINE      CODE     ---       #6637
      01002AEEH   LINE      CODE     ---       #6638
      01002B07H   LINE      CODE     ---       #6639
      01002B07H   LINE      CODE     ---       #6640
      01002B18H   LINE      CODE     ---       #6641
      01002B1AH   LINE      CODE     ---       #6643
      01002B1AH   LINE      CODE     ---       #6644
      01002B1AH   LINE      CODE     ---       #6646
      01002B1AH   LINE      CODE     ---       #6648
      01002B2BH   LINE      CODE     ---       #6650
      01002B2BH   LINE      CODE     ---       #6652
      01002B42H   LINE      CODE     ---       #6653
      01002B42H   LINE      CODE     ---       #6655
      01002B45H   LINE      CODE     ---       #6656
      01002B45H   LINE      CODE     ---       #6657
      01002B45H   LINE      CODE     ---       #6658
      01002B45H   LINE      CODE     ---       #6661
      01002B6AH   LINE      CODE     ---       #6662
      01002B6AH   LINE      CODE     ---       #6663
      01002B6AH   LINE      CODE     ---       #6664
      01002B6AH   LINE      CODE     ---       #6666
      ---         BLOCKEND  ---      ---       LVL=0

      0100771DH   BLOCK     CODE     ---       LVL=0
      0100771DH   LINE      CODE     ---       #6672
      0100771DH   LINE      CODE     ---       #6673
      0100771DH   LINE      CODE     ---       #6675
      ---         BLOCKEND  ---      ---       LVL=0

      0100761CH   BLOCK     CODE     ---       LVL=0
      0100761CH   LINE      CODE     ---       #6679
      0100761CH   LINE      CODE     ---       #6680
      0100761CH   LINE      CODE     ---       #6681
      01007622H   LINE      CODE     ---       #6682
      01007622H   LINE      CODE     ---       #6683
      01007625H   LINE      CODE     ---       #6684
      01007625H   LINE      CODE     ---       #6685
      ---         BLOCKEND  ---      ---       LVL=0

      01007626H   BLOCK     CODE     ---       LVL=0
      01007626H   LINE      CODE     ---       #6687
      01007626H   LINE      CODE     ---       #6688
      01007626H   LINE      CODE     ---       #6689
      0100762CH   LINE      CODE     ---       #6690
      0100762CH   LINE      CODE     ---       #6691
      0100762FH   LINE      CODE     ---       #6692
      0100762FH   LINE      CODE     ---       #6693
      ---         BLOCKEND  ---      ---       LVL=0

      01007630H   BLOCK     CODE     ---       LVL=0
      01007630H   LINE      CODE     ---       #6696
      01007630H   LINE      CODE     ---       #6697
LX51 LINKER/LOCATER V4.41                                                             05/23/2018  09:43:07  PAGE 76


      01007630H   LINE      CODE     ---       #6698
      01007636H   LINE      CODE     ---       #6699
      01007636H   LINE      CODE     ---       #6700
      01007639H   LINE      CODE     ---       #6701
      01007639H   LINE      CODE     ---       #6702
      ---         BLOCKEND  ---      ---       LVL=0

      0100763AH   BLOCK     CODE     ---       LVL=0
      0100763AH   LINE      CODE     ---       #6704
      0100763AH   LINE      CODE     ---       #6705
      0100763AH   LINE      CODE     ---       #6706
      01007640H   LINE      CODE     ---       #6707
      01007640H   LINE      CODE     ---       #6708
      01007643H   LINE      CODE     ---       #6709
      01007643H   LINE      CODE     ---       #6710
      ---         BLOCKEND  ---      ---       LVL=0

      01007745H   BLOCK     CODE     ---       LVL=0
      01007745H   LINE      CODE     ---       #6715
      01007745H   LINE      CODE     ---       #6716
      01007745H   LINE      CODE     ---       #6717
      ---         BLOCKEND  ---      ---       LVL=0

      010076EDH   BLOCK     CODE     ---       LVL=0
      02000758H   SYMBOL    XDATA    BYTE      num
      010076EDH   LINE      CODE     ---       #6721
      010076F2H   LINE      CODE     ---       #6723
      010076F2H   LINE      CODE     ---       #6724
      ---         BLOCKEND  ---      ---       LVL=0

      010066B3H   BLOCK     CODE     ---       LVL=0
      02000757H   SYMBOL    XDATA    BYTE      arg_0x7e794030
      010066B3H   LINE      CODE     ---       #6727
      010066B8H   LINE      CODE     ---       #6729
      010066CBH   LINE      CODE     ---       #6731
      010066CBH   LINE      CODE     ---       #6733
      010066CEH   LINE      CODE     ---       #6735
      010066CEH   LINE      CODE     ---       #6737
      010066CEH   LINE      CODE     ---       #6739
      010066D1H   LINE      CODE     ---       #6741
      010066D1H   LINE      CODE     ---       #6743
      010066D1H   LINE      CODE     ---       #6745
      010066D4H   LINE      CODE     ---       #6747
      010066D4H   LINE      CODE     ---       #6749
      010066D4H   LINE      CODE     ---       #6751
      010066D7H   LINE      CODE     ---       #6753
      010066D7H   LINE      CODE     ---       #6755
      010066D7H   LINE      CODE     ---       #6757
      010066DAH   LINE      CODE     ---       #6759
      010066DAH   LINE      CODE     ---       #6761
      010066DAH   LINE      CODE     ---       #6763
      010066DDH   LINE      CODE     ---       #6765
      010066DDH   LINE      CODE     ---       #6767
      010066DDH   LINE      CODE     ---       #6769
      010066E5H   LINE      CODE     ---       #6771
      010066E5H   LINE      CODE     ---       #6773
      010066E5H   LINE      CODE     ---       #6775
      ---         BLOCKEND  ---      ---       LVL=0

      010047DEH   BLOCK     CODE     ---       LVL=0
      02000770H   SYMBOL    XDATA    WORD      t0
      02000772H   SYMBOL    XDATA    WORD      dt
      010047ECH   BLOCK     CODE     NEAR LAB  LVL=1
      02000774H   SYMBOL    XDATA    WORD      set
      00000004H   SYMBOL    DATA     WORD      now
LX51 LINKER/LOCATER V4.41                                                             05/23/2018  09:43:07  PAGE 77


      00000006H   SYMBOL    DATA     WORD      elapsed
      01004820H   BLOCK     CODE     NEAR LAB  LVL=2
      02000776H   SYMBOL    XDATA    WORD      remaining
      ---         BLOCKEND  ---      ---       LVL=2
      ---         BLOCKEND  ---      ---       LVL=1
      010047DEH   LINE      CODE     ---       #6778
      010047ECH   LINE      CODE     ---       #6779
      010047ECH   LINE      CODE     ---       #6780
      010047ECH   LINE      CODE     ---       #6788
      010047ECH   LINE      CODE     ---       #6790
      010047F2H   LINE      CODE     ---       #6792
      010047FCH   LINE      CODE     ---       #6793
      010047FCH   LINE      CODE     ---       #6797
      0100480BH   LINE      CODE     ---       #6799
      01004818H   LINE      CODE     ---       #6800
      01004818H   LINE      CODE     ---       #6801
      0100481EH   LINE      CODE     ---       #6802
      01004820H   LINE      CODE     ---       #6804
      01004820H   LINE      CODE     ---       #6805
      01004834H   LINE      CODE     ---       #6808
      0100483CH   LINE      CODE     ---       #6809
      0100483CH   LINE      CODE     ---       #6810
      01004842H   LINE      CODE     ---       #6811
      01004844H   LINE      CODE     ---       #6813
      01004844H   LINE      CODE     ---       #6814
      0100485AH   LINE      CODE     ---       #6815
      0100485AH   LINE      CODE     ---       #6816
      0100485AH   LINE      CODE     ---       #6818
      0100485AH   LINE      CODE     ---       #6820
      0100485DH   LINE      CODE     ---       #6822
      01004866H   LINE      CODE     ---       #6824
      01004869H   LINE      CODE     ---       #6826
      0100486CH   LINE      CODE     ---       #6827
      0100486CH   LINE      CODE     ---       #6831
      0100486FH   LINE      CODE     ---       #6833
      0100486FH   LINE      CODE     ---       #6835
      0100486FH   LINE      CODE     ---       #6837
      01004880H   LINE      CODE     ---       #6839
      01004880H   LINE      CODE     ---       #6841
      0100489BH   LINE      CODE     ---       #6842
      0100489BH   LINE      CODE     ---       #6844
      0100489EH   LINE      CODE     ---       #6845
      0100489EH   LINE      CODE     ---       #6846
      0100489EH   LINE      CODE     ---       #6847
      0100489EH   LINE      CODE     ---       #6850
      0100489EH   LINE      CODE     ---       #6851
      ---         BLOCKEND  ---      ---       LVL=0

      010067E4H   BLOCK     CODE     ---       LVL=0
      010067E4H   LINE      CODE     ---       #6856
      010067E4H   LINE      CODE     ---       #6857
      010067E4H   LINE      CODE     ---       #6859
      010067E4H   LINE      CODE     ---       #6860
      010067E4H   LINE      CODE     ---       #6862
      010067E4H   LINE      CODE     ---       #6864
      010067F5H   LINE      CODE     ---       #6866
      010067F5H   LINE      CODE     ---       #6868
      0100680CH   LINE      CODE     ---       #6869
      0100680CH   LINE      CODE     ---       #6871
      0100680FH   LINE      CODE     ---       #6872
      0100680FH   LINE      CODE     ---       #6873
      0100680FH   LINE      CODE     ---       #6874
      0100680FH   LINE      CODE     ---       #6877
      ---         BLOCKEND  ---      ---       LVL=0

LX51 LINKER/LOCATER V4.41                                                             05/23/2018  09:43:07  PAGE 78


      01006422H   BLOCK     CODE     ---       LVL=0
      01006422H   BLOCK     CODE     NEAR LAB  LVL=1
      02000736H   SYMBOL    XDATA    DWORD     __nesc_temp
      ---         BLOCKEND  ---      ---       LVL=1
      01006422H   LINE      CODE     ---       #6884
      01006422H   LINE      CODE     ---       #6885
      01006422H   LINE      CODE     ---       #6888
      01006422H   LINE      CODE     ---       #6889
      0100644EH   LINE      CODE     ---       #6894
      0100645CH   LINE      CODE     ---       #6895
      0100645CH   LINE      CODE     ---       #6896
      ---         BLOCKEND  ---      ---       LVL=0

      01005E17H   BLOCK     CODE     ---       LVL=0
      01005E17H   BLOCK     CODE     NEAR LAB  LVL=1
      02000735H   SYMBOL    XDATA    BYTE      __nesc_atomic
      ---         BLOCKEND  ---      ---       LVL=1
      01005E17H   LINE      CODE     ---       #6901
      01005E17H   LINE      CODE     ---       #6902
      01005E17H   LINE      CODE     ---       #6903
      01005E1FH   LINE      CODE     ---       #6905
      01005E25H   LINE      CODE     ---       #6906
      01005E25H   LINE      CODE     ---       #6907
      01005E54H   LINE      CODE     ---       #6908
      01005E54H   LINE      CODE     ---       #6909
      01005E57H   LINE      CODE     ---       #6910
      01005E57H   LINE      CODE     ---       #6912
      ---         BLOCKEND  ---      ---       LVL=0

      0100776DH   BLOCK     CODE     ---       LVL=0
      0100776DH   LINE      CODE     ---       #6916
      0100776DH   LINE      CODE     ---       #6917
      0100776DH   LINE      CODE     ---       #6918
      ---         BLOCKEND  ---      ---       LVL=0

      01004308H   BLOCK     CODE     ---       LVL=0
      0200073EH   SYMBOL    XDATA    WORD      addr
      02000740H   SYMBOL    XDATA    ---       msg
      02000743H   SYMBOL    XDATA    BYTE      len
      0100430BH   BLOCK     CODE     NEAR LAB  LVL=1
      00000007H   SYMBOL    DATA     BYTE      result
      0100430BH   BLOCK     CODE     NEAR LAB  LVL=2
      02000744H   SYMBOL    XDATA    BYTE      __nesc_atomic
      01004313H   BLOCK     CODE     NEAR LAB  LVL=3
      02000745H   SYMBOL    XDATA    ---       header
      02000748H   SYMBOL    XDATA    ---       meta_data
      01004345H   BLOCK     CODE     NEAR LAB  LVL=4
      0200074BH   SYMBOL    XDATA    BYTE      __nesc_temp
      ---         BLOCKEND  ---      ---       LVL=4
      010043CEH   BLOCK     CODE     NEAR LAB  LVL=4
      0200074BH   SYMBOL    XDATA    BYTE      __nesc_temp
      ---         BLOCKEND  ---      ---       LVL=4
      ---         BLOCKEND  ---      ---       LVL=3
      ---         BLOCKEND  ---      ---       LVL=2
      ---         BLOCKEND  ---      ---       LVL=1
      01004308H   LINE      CODE     ---       #6927
      0100430BH   LINE      CODE     ---       #6928
      0100430BH   LINE      CODE     ---       #6929
      0100430BH   LINE      CODE     ---       #6931
      01004313H   LINE      CODE     ---       #6933
      01004324H   LINE      CODE     ---       #6934
      0100433FH   LINE      CODE     ---       #6936
      01004345H   LINE      CODE     ---       #6937
      01004345H   LINE      CODE     ---       #6938
      01004345H   LINE      CODE     ---       #6939
LX51 LINKER/LOCATER V4.41                                                             05/23/2018  09:43:07  PAGE 79


      0100434AH   LINE      CODE     ---       #6945
      0100434AH   LINE      CODE     ---       #6947
      0100434DH   LINE      CODE     ---       #6948
      0100434DH   LINE      CODE     ---       #6949
      0100434DH   LINE      CODE     ---       #6950
      0100434DH   LINE      CODE     ---       #6951
      0100436FH   LINE      CODE     ---       #6953
      01004375H   LINE      CODE     ---       #6955
      01004389H   LINE      CODE     ---       #6957
      01004399H   LINE      CODE     ---       #6958
      0100439FH   LINE      CODE     ---       #6961
      010043A5H   LINE      CODE     ---       #6963
      010043A8H   LINE      CODE     ---       #6964
      010043A8H   LINE      CODE     ---       #6965
      010043AEH   LINE      CODE     ---       #6966
      010043B4H   LINE      CODE     ---       #6967
      010043C9H   LINE      CODE     ---       #6968
      010043CEH   LINE      CODE     ---       #6969
      010043CEH   LINE      CODE     ---       #6971
      010043CEH   LINE      CODE     ---       #6972
      010043D3H   LINE      CODE     ---       #6978
      010043DBH   LINE      CODE     ---       #6980
      010043E0H   LINE      CODE     ---       #6981
      010043E0H   LINE      CODE     ---       #6982
      010043E0H   LINE      CODE     ---       #6983
      010043E0H   LINE      CODE     ---       #6985
      010043E0H   LINE      CODE     ---       #6986
      ---         BLOCKEND  ---      ---       LVL=0

      01005067H   BLOCK     CODE     ---       LVL=0
      01005067H   BLOCK     CODE     NEAR LAB  LVL=1
      00000004H   SYMBOL    DATA     WORD      address
      00000003H   SYMBOL    DATA     BYTE      i
      01005082H   BLOCK     CODE     NEAR LAB  LVL=2
      0200073EH   SYMBOL    XDATA    BYTE      digital
      ---         BLOCKEND  ---      ---       LVL=2
      ---         BLOCKEND  ---      ---       LVL=1
      01005067H   LINE      CODE     ---       #6991
      01005067H   LINE      CODE     ---       #6992
      01005067H   LINE      CODE     ---       #6993
      0100506AH   LINE      CODE     ---       #6994
      0100506AH   LINE      CODE     ---       #6996
      01005073H   LINE      CODE     ---       #6997
      01005073H   LINE      CODE     ---       #6998
      01005076H   LINE      CODE     ---       #6999
      01005076H   LINE      CODE     ---       #7001
      01005082H   LINE      CODE     ---       #7002
      01005082H   LINE      CODE     ---       #7003
      01005091H   LINE      CODE     ---       #7006
      0100509DH   LINE      CODE     ---       #7007
      0100509DH   LINE      CODE     ---       #7008
      010050A1H   LINE      CODE     ---       #7009
      010050A3H   LINE      CODE     ---       #7010
      010050A3H   LINE      CODE     ---       #7012
      010050B3H   LINE      CODE     ---       #7013
      010050B3H   LINE      CODE     ---       #7014
      010050B7H   LINE      CODE     ---       #7015
      010050B9H   LINE      CODE     ---       #7016
      010050B9H   LINE      CODE     ---       #7018
      010050C9H   LINE      CODE     ---       #7019
      010050C9H   LINE      CODE     ---       #7020
      010050CDH   LINE      CODE     ---       #7021
      010050CDH   LINE      CODE     ---       #7022
      010050CDH   LINE      CODE     ---       #7023
      010050CDH   LINE      CODE     ---       #7025
LX51 LINKER/LOCATER V4.41                                                             05/23/2018  09:43:07  PAGE 80


      010050E6H   LINE      CODE     ---       #7026
      010050E9H   LINE      CODE     ---       #7028
      010050EDH   LINE      CODE     ---       #7029
      ---         BLOCKEND  ---      ---       LVL=0

      01003A83H   BLOCK     CODE     ---       LVL=0
      01003A83H   BLOCK     CODE     NEAR LAB  LVL=1
      02000735H   SYMBOL    XDATA    BYTE      i
      02000736H   SYMBOL    XDATA    ---       payload
      02000739H   SYMBOL    XDATA    WORD      address
      0200073BH   SYMBOL    XDATA    WORD      dest_address
      01003ABFH   BLOCK     CODE     NEAR LAB  LVL=2
      0200073DH   SYMBOL    XDATA    BYTE      __nesc_atomic
      ---         BLOCKEND  ---      ---       LVL=2
      01003B25H   BLOCK     CODE     NEAR LAB  LVL=2
      0200073DH   SYMBOL    XDATA    BYTE      __nesc_atomic
      ---         BLOCKEND  ---      ---       LVL=2
      ---         BLOCKEND  ---      ---       LVL=1
      01003A83H   LINE      CODE     ---       #7036
      01003A83H   LINE      CODE     ---       #7037
      01003A83H   LINE      CODE     ---       #7039
      01003A98H   LINE      CODE     ---       #7040
      01003AA3H   LINE      CODE     ---       #7041
      01003AAEH   LINE      CODE     ---       #7045
      01003AAEH   LINE      CODE     ---       #7047
      01003ABFH   LINE      CODE     ---       #7049
      01003AC7H   LINE      CODE     ---       #7053
      01003AF0H   LINE      CODE     ---       #7054
      01003AF0H   LINE      CODE     ---       #7056
      01003AF3H   LINE      CODE     ---       #7058
      01003AF6H   LINE      CODE     ---       #7059
      01003AF6H   LINE      CODE     ---       #7060
      01003AF6H   LINE      CODE     ---       #7061
      01003AF6H   LINE      CODE     ---       #7064
      01003AFCH   LINE      CODE     ---       #7066
      01003B14H   LINE      CODE     ---       #7067
      01003B14H   LINE      CODE     ---       #7068
      01003B14H   LINE      CODE     ---       #7070
      01003B14H   LINE      CODE     ---       #7072
      01003B25H   LINE      CODE     ---       #7074
      01003B2DH   LINE      CODE     ---       #7078
      01003B6FH   LINE      CODE     ---       #7079
      01003B6FH   LINE      CODE     ---       #7081
      01003B72H   LINE      CODE     ---       #7083
      01003B75H   LINE      CODE     ---       #7084
      01003B75H   LINE      CODE     ---       #7085
      01003B75H   LINE      CODE     ---       #7086
      01003B75H   LINE      CODE     ---       #7092
      01003B8EH   LINE      CODE     ---       #7093
      01003B90H   LINE      CODE     ---       #7095
      01003B90H   LINE      CODE     ---       #7096
      01003B95H   LINE      CODE     ---       #7098
      01003B99H   LINE      CODE     ---       #7099
      01003B99H   LINE      CODE     ---       #7100
      01003B99H   LINE      CODE     ---       #7102
      01003B9BH   LINE      CODE     ---       #7103
      01003B9BH   LINE      CODE     ---       #7106
      ---         BLOCKEND  ---      ---       LVL=0

      01004CDBH   BLOCK     CODE     ---       LVL=0
      01004CF7H   BLOCK     CODE     NEAR LAB  LVL=1
      02000735H   SYMBOL    XDATA    BYTE      __nesc_atomic
      02000735H   SYMBOL    XDATA    BYTE      __nesc_atomic
      ---         BLOCKEND  ---      ---       LVL=1
      01004D32H   BLOCK     CODE     NEAR LAB  LVL=1
LX51 LINKER/LOCATER V4.41                                                             05/23/2018  09:43:07  PAGE 81


      02000735H   SYMBOL    XDATA    BYTE      __nesc_atomic
      ---         BLOCKEND  ---      ---       LVL=1
      01004CDBH   LINE      CODE     ---       #7109
      01004CDBH   LINE      CODE     ---       #7110
      01004CDBH   LINE      CODE     ---       #7111
      01004CE3H   LINE      CODE     ---       #7112
      01004CE3H   LINE      CODE     ---       #7113
      01004CE3H   LINE      CODE     ---       #7115
      01004CE3H   LINE      CODE     ---       #7117
      01004CF7H   LINE      CODE     ---       #7119
      01004CFFH   LINE      CODE     ---       #7123
      01004D16H   LINE      CODE     ---       #7124
      01004D16H   LINE      CODE     ---       #7126
      01004D1EH   LINE      CODE     ---       #7128
      01004D21H   LINE      CODE     ---       #7129
      01004D21H   LINE      CODE     ---       #7130
      01004D21H   LINE      CODE     ---       #7131
      01004D21H   LINE      CODE     ---       #7134
      01004D21H   LINE      CODE     ---       #7136
      01004D21H   LINE      CODE     ---       #7137
      01004D21H   LINE      CODE     ---       #7139
      01004D21H   LINE      CODE     ---       #7141
      01004D32H   LINE      CODE     ---       #7143
      01004D3AH   LINE      CODE     ---       #7147
      01004D6BH   LINE      CODE     ---       #7148
      01004D6BH   LINE      CODE     ---       #7150
      01004D6EH   LINE      CODE     ---       #7152
      01004D71H   LINE      CODE     ---       #7153
      01004D71H   LINE      CODE     ---       #7154
      01004D71H   LINE      CODE     ---       #7155
      01004D71H   LINE      CODE     ---       #7161
      01004D76H   LINE      CODE     ---       #7162
      01004D7AH   LINE      CODE     ---       #7163
      01004D7AH   LINE      CODE     ---       #7164
      ---         BLOCKEND  ---      ---       LVL=0

      0100740DH   BLOCK     CODE     ---       LVL=0
      ---         BLOCKEND  ---      ---       LVL=0

      01007414H   BLOCK     CODE     ---       LVL=0
      00000007H   SYMBOL    DATA     BYTE      r1
      00000005H   SYMBOL    DATA     BYTE      r2
      01007414H   LINE      CODE     ---       #7167
      01007414H   LINE      CODE     ---       #7172
      01007414H   LINE      CODE     ---       #7173
      0100741CH   LINE      CODE     ---       #7174
      ---         BLOCKEND  ---      ---       LVL=0

      01007748H   BLOCK     CODE     ---       LVL=0
      01007748H   LINE      CODE     ---       #7177
      01007748H   LINE      CODE     ---       #7178
      01007748H   LINE      CODE     ---       #7179
      0100774AH   LINE      CODE     ---       #7180
      ---         BLOCKEND  ---      ---       LVL=0

      01006B31H   BLOCK     CODE     ---       LVL=0
      01006B31H   LINE      CODE     ---       #7183
      01006B31H   LINE      CODE     ---       #7184
      01006B31H   LINE      CODE     ---       #7186
      01006B31H   LINE      CODE     ---       #7187
      01006B37H   LINE      CODE     ---       #7194
      01006B42H   LINE      CODE     ---       #7195
      01006B42H   LINE      CODE     ---       #7196
      01006B48H   LINE      CODE     ---       #7197
      01006B48H   LINE      CODE     ---       #7199
LX51 LINKER/LOCATER V4.41                                                             05/23/2018  09:43:07  PAGE 82


      01006B4EH   LINE      CODE     ---       #7200
      01006B53H   LINE      CODE     ---       #7206
      01006B58H   LINE      CODE     ---       #7207
      01006B58H   LINE      CODE     ---       #7210
      01006B5AH   LINE      CODE     ---       #7211
      ---         BLOCKEND  ---      ---       LVL=0

      01005365H   BLOCK     CODE     ---       LVL=0
      01005365H   BLOCK     CODE     NEAR LAB  LVL=1
      02000733H   SYMBOL    XDATA    WORD      rndSeed
      02000735H   SYMBOL    XDATA    BYTE      i
      ---         BLOCKEND  ---      ---       LVL=1
      01005365H   LINE      CODE     ---       #7214
      01005365H   LINE      CODE     ---       #7216
      01005365H   LINE      CODE     ---       #7219
      01005365H   LINE      CODE     ---       #7224
      0100536DH   LINE      CODE     ---       #7230
      01005373H   LINE      CODE     ---       #7233
      01005376H   LINE      CODE     ---       #7240
      0100537DH   LINE      CODE     ---       #7242
      01005384H   LINE      CODE     ---       #7243
      01005386H   LINE      CODE     ---       #7244
      01005386H   LINE      CODE     ---       #7246
      010053A5H   LINE      CODE     ---       #7247
      010053ADH   LINE      CODE     ---       #7254
      010053BEH   LINE      CODE     ---       #7255
      010053BEH   LINE      CODE     ---       #7256
      010053C8H   LINE      CODE     ---       #7257
      010053C8H   LINE      CODE     ---       #7263
      010053D1H   LINE      CODE     ---       #7264
      010053D4H   LINE      CODE     ---       #7267
      010053D7H   LINE      CODE     ---       #7270
      010053DDH   LINE      CODE     ---       #7271
      010053DDH   LINE      CODE     ---       #7273
      010053DFH   LINE      CODE     ---       #7274
      ---         BLOCKEND  ---      ---       LVL=0

      01006D5CH   BLOCK     CODE     ---       LVL=0
      01006D7AH   BLOCK     CODE     NEAR LAB  LVL=1
      02000733H   SYMBOL    XDATA    BYTE      __nesc_temp
      ---         BLOCKEND  ---      ---       LVL=1
      01006D5CH   LINE      CODE     ---       #7277
      01006D5CH   LINE      CODE     ---       #7278
      01006D5CH   LINE      CODE     ---       #7280
      01006D5CH   LINE      CODE     ---       #7281
      01006D6BH   LINE      CODE     ---       #7282
      01006D7AH   LINE      CODE     ---       #7284
      01006D7AH   LINE      CODE     ---       #7285
      01006D7FH   LINE      CODE     ---       #7290
      01006D80H   LINE      CODE     ---       #7291
      01006D80H   LINE      CODE     ---       #7292
      01006D80H   LINE      CODE     ---       #7293
      ---         BLOCKEND  ---      ---       LVL=0

      01006815H   BLOCK     CODE     ---       LVL=0
      01006815H   BLOCK     CODE     NEAR LAB  LVL=1
      02000732H   SYMBOL    XDATA    BYTE      result
      ---         BLOCKEND  ---      ---       LVL=1
      01006815H   LINE      CODE     ---       #7296
      01006815H   LINE      CODE     ---       #7302
      0100681DH   LINE      CODE     ---       #7304
      01006828H   LINE      CODE     ---       #7306
      0100682BH   LINE      CODE     ---       #7308
      0100682EH   LINE      CODE     ---       #7310
      0100683DH   LINE      CODE     ---       #7312
LX51 LINKER/LOCATER V4.41                                                             05/23/2018  09:43:07  PAGE 83


      01006845H   LINE      CODE     ---       #7316
      01006845H   LINE      CODE     ---       #7318
      ---         BLOCKEND  ---      ---       LVL=0

      010076CDH   BLOCK     CODE     ---       LVL=0
      010076CDH   LINE      CODE     ---       #7321
      010076CDH   LINE      CODE     ---       #7322
      010076CDH   LINE      CODE     ---       #7324
      010076CFH   LINE      CODE     ---       #7325
      010076D1H   LINE      CODE     ---       #7327
      010076D3H   LINE      CODE     ---       #7328
      ---         BLOCKEND  ---      ---       LVL=0

      01007673H   BLOCK     CODE     ---       LVL=0
      00000004H   SYMBOL    DATA     DWORD     baud
      01007673H   LINE      CODE     ---       #7331
      01007673H   LINE      CODE     ---       #7332
      01007673H   LINE      CODE     ---       #7333
      01007676H   LINE      CODE     ---       #7334
      01007679H   LINE      CODE     ---       #7336
      0100767BH   LINE      CODE     ---       #7337
      ---         BLOCKEND  ---      ---       LVL=0

      01007538H   BLOCK     CODE     ---       LVL=0
      01007538H   LINE      CODE     ---       #7339
      01007538H   LINE      CODE     ---       #7340
      01007538H   LINE      CODE     ---       #7341
      01007543H   LINE      CODE     ---       #7342
      ---         BLOCKEND  ---      ---       LVL=0

      01006846H   BLOCK     CODE     ---       LVL=0
      01006846H   LINE      CODE     ---       #7347
      01006846H   LINE      CODE     ---       #7348
      01006846H   LINE      CODE     ---       #7349
      0100684FH   LINE      CODE     ---       #7350
      0100685AH   LINE      CODE     ---       #7352
      01006861H   LINE      CODE     ---       #7353
      01006867H   LINE      CODE     ---       #7355
      0100686DH   LINE      CODE     ---       #7356
      01006873H   LINE      CODE     ---       #7358
      01006876H   LINE      CODE     ---       #7359
      ---         BLOCKEND  ---      ---       LVL=0

      0100745AH   BLOCK     CODE     ---       LVL=0
      0100745AH   LINE      CODE     ---       #7364
      0100745AH   LINE      CODE     ---       #7365
      0100745AH   LINE      CODE     ---       #7367
      0100745AH   LINE      CODE     ---       #7369
      0100745AH   LINE      CODE     ---       #7372
      01007461H   LINE      CODE     ---       #7373
      01007461H   LINE      CODE     ---       #7374
      01007461H   LINE      CODE     ---       #7377
      01007461H   LINE      CODE     ---       #7379
      01007464H   LINE      CODE     ---       #7381
      01007467H   LINE      CODE     ---       #7382
      01007467H   LINE      CODE     ---       #7383
      01007467H   LINE      CODE     ---       #7386
      01007467H   LINE      CODE     ---       #7388
      01007468H   LINE      CODE     ---       #7389
      ---         BLOCKEND  ---      ---       LVL=0

      010074EDH   BLOCK     CODE     ---       LVL=0
      010074EDH   LINE      CODE     ---       #7394
      010074EDH   LINE      CODE     ---       #7395
      010074EDH   LINE      CODE     ---       #7398
LX51 LINKER/LOCATER V4.41                                                             05/23/2018  09:43:07  PAGE 84


      010074EDH   LINE      CODE     ---       #7399
      010074EFH   LINE      CODE     ---       #7400
      010074F5H   LINE      CODE     ---       #7401
      010074F7H   LINE      CODE     ---       #7402
      010074F7H   LINE      CODE     ---       #7403
      010074F9H   LINE      CODE     ---       #7404
      ---         BLOCKEND  ---      ---       LVL=0

      01007644H   BLOCK     CODE     ---       LVL=0
      01007644H   LINE      CODE     ---       #7409
      01007644H   LINE      CODE     ---       #7410
      01007644H   LINE      CODE     ---       #7413
      01007644H   LINE      CODE     ---       #7414
      01007644H   LINE      CODE     ---       #7417
      0100764BH   LINE      CODE     ---       #7418
      0100764BH   LINE      CODE     ---       #7419
      0100764BH   LINE      CODE     ---       #7422
      0100764BH   LINE      CODE     ---       #7423
      0100764DH   LINE      CODE     ---       #7424
      ---         BLOCKEND  ---      ---       LVL=0

      01006FD1H   BLOCK     CODE     ---       LVL=0
      01006FD1H   LINE      CODE     ---       #7429
      01006FD1H   LINE      CODE     ---       #7430
      01006FD1H   LINE      CODE     ---       #7431
      01006FD1H   LINE      CODE     ---       #7433
      01006FDAH   LINE      CODE     ---       #7434
      01006FDAH   LINE      CODE     ---       #7437
      01006FDAH   LINE      CODE     ---       #7439
      01006FDAH   LINE      CODE     ---       #7441
      01006FDDH   LINE      CODE     ---       #7443
      01006FE0H   LINE      CODE     ---       #7444
      01006FE0H   LINE      CODE     ---       #7445
      01006FE0H   LINE      CODE     ---       #7449
      01006FE0H   LINE      CODE     ---       #7451
      01006FE2H   LINE      CODE     ---       #7453
      01006FE5H   LINE      CODE     ---       #7454
      01006FE5H   LINE      CODE     ---       #7455
      01006FE5H   LINE      CODE     ---       #7458
      01006FE5H   LINE      CODE     ---       #7462
      01006FE8H   LINE      CODE     ---       #7463
      01006FEBH   LINE      CODE     ---       #7465
      01006FEDH   LINE      CODE     ---       #7466
      ---         BLOCKEND  ---      ---       LVL=0

      0100767CH   BLOCK     CODE     ---       LVL=0
      0100767CH   LINE      CODE     ---       #7471
      0100767CH   LINE      CODE     ---       #7472
      0100767CH   LINE      CODE     ---       #7474
      0100767CH   LINE      CODE     ---       #7475
      0100767CH   LINE      CODE     ---       #7478
      01007684H   LINE      CODE     ---       #7479
      01007684H   LINE      CODE     ---       #7480
      01007684H   LINE      CODE     ---       #7483
      01007684H   LINE      CODE     ---       #7484
      ---         BLOCKEND  ---      ---       LVL=0

      010076D4H   BLOCK     CODE     ---       LVL=0
      010076D4H   LINE      CODE     ---       #7487
      010076D4H   LINE      CODE     ---       #7488
      010076D4H   LINE      CODE     ---       #7489
      010076D4H   LINE      CODE     ---       #7492
      010076DAH   LINE      CODE     ---       #7493
      010076DAH   LINE      CODE     ---       #7494
      010076DAH   LINE      CODE     ---       #7497
LX51 LINKER/LOCATER V4.41                                                             05/23/2018  09:43:07  PAGE 85


      ---         BLOCKEND  ---      ---       LVL=0

      01006DEFH   BLOCK     CODE     ---       LVL=0
      01006DEFH   LINE      CODE     ---       #7500
      01006DEFH   LINE      CODE     ---       #7501
      01006DEFH   LINE      CODE     ---       #7503
      01006DEFH   LINE      CODE     ---       #7505
      01006DF8H   LINE      CODE     ---       #7506
      01006DFBH   LINE      CODE     ---       #7507
      01006DFDH   LINE      CODE     ---       #7508
      01006DFDH   LINE      CODE     ---       #7511
      01006E00H   LINE      CODE     ---       #7512
      01006E00H   LINE      CODE     ---       #7514
      01006E09H   LINE      CODE     ---       #7515
      01006E09H   LINE      CODE     ---       #7518
      01006E0DH   LINE      CODE     ---       #7519
      01006E0DH   LINE      CODE     ---       #7520
      01006E0DH   LINE      CODE     ---       #7523
      01006E0EH   LINE      CODE     ---       #7524
      01006E0EH   LINE      CODE     ---       #7526
      01006E0EH   LINE      CODE     ---       #7529
      01006E12H   LINE      CODE     ---       #7530
      01006E12H   LINE      CODE     ---       #7531
      01006E12H   LINE      CODE     ---       #7534
      01006E12H   LINE      CODE     ---       #7535
      01006E12H   LINE      CODE     ---       #7536
      ---         BLOCKEND  ---      ---       LVL=0

      01007469H   BLOCK     CODE     ---       LVL=0
      01007469H   LINE      CODE     ---       #7539
      01007469H   LINE      CODE     ---       #7540
      01007469H   LINE      CODE     ---       #7542
      01007469H   LINE      CODE     ---       #7543
      01007469H   LINE      CODE     ---       #7546
      01007477H   LINE      CODE     ---       #7547
      01007477H   LINE      CODE     ---       #7548
      01007477H   LINE      CODE     ---       #7551
      01007477H   LINE      CODE     ---       #7552
      ---         BLOCKEND  ---      ---       LVL=0

      01007544H   BLOCK     CODE     ---       LVL=0
      01007544H   LINE      CODE     ---       #7555
      01007544H   LINE      CODE     ---       #7556
      01007544H   LINE      CODE     ---       #7558
      01007544H   LINE      CODE     ---       #7559
      01007547H   LINE      CODE     ---       #7560
      0100754AH   LINE      CODE     ---       #7561
      0100754DH   LINE      CODE     ---       #7562
      ---         BLOCKEND  ---      ---       LVL=0

      0100774BH   BLOCK     CODE     ---       LVL=0
      0100774BH   LINE      CODE     ---       #7567
      0100774BH   LINE      CODE     ---       #7568
      0100774BH   LINE      CODE     ---       #7569
      ---         BLOCKEND  ---      ---       LVL=0

      0100764EH   BLOCK     CODE     ---       LVL=0
      0100764EH   LINE      CODE     ---       #7575
      0100764EH   LINE      CODE     ---       #7576
      0100764EH   LINE      CODE     ---       #7579
      0100764EH   LINE      CODE     ---       #7581
      01007651H   LINE      CODE     ---       #7583
      01007654H   LINE      CODE     ---       #7584
      01007654H   LINE      CODE     ---       #7585
      01007654H   LINE      CODE     ---       #7589
LX51 LINKER/LOCATER V4.41                                                             05/23/2018  09:43:07  PAGE 86


      01007654H   LINE      CODE     ---       #7591
      01007657H   LINE      CODE     ---       #7592
      01007657H   LINE      CODE     ---       #7593
      01007657H   LINE      CODE     ---       #7596
      ---         BLOCKEND  ---      ---       LVL=0

      0100776EH   BLOCK     CODE     ---       LVL=0
      0100776EH   LINE      CODE     ---       #7601
      0100776EH   LINE      CODE     ---       #7602
      0100776EH   LINE      CODE     ---       #7603
      ---         BLOCKEND  ---      ---       LVL=0

      010067B2H   BLOCK     CODE     ---       LVL=0
      010067B2H   LINE      CODE     ---       #7608
      010067B2H   LINE      CODE     ---       #7609
      010067B2H   LINE      CODE     ---       #7612
      010067B8H   LINE      CODE     ---       #7623
      010067BDH   LINE      CODE     ---       #7626
      010067C3H   LINE      CODE     ---       #7629
      010067C9H   LINE      CODE     ---       #7632
      010067CFH   LINE      CODE     ---       #7635
      010067D2H   LINE      CODE     ---       #7638
      010067D4H   LINE      CODE     ---       #7646
      010067D4H   LINE      CODE     ---       #7649
      010067D9H   LINE      CODE     ---       #7652
      010067DBH   LINE      CODE     ---       #7655
      010067DDH   LINE      CODE     ---       #7656
      010067DDH   LINE      CODE     ---       #7657
      010067DDH   LINE      CODE     ---       #7660
      010067DDH   LINE      CODE     ---       #7663
      010067DFH   LINE      CODE     ---       #7666
      010067E1H   LINE      CODE     ---       #7669
      010067E3H   LINE      CODE     ---       #7670
      010067E3H   LINE      CODE     ---       #7671
      010067E3H   LINE      CODE     ---       #7674
      ---         BLOCKEND  ---      ---       LVL=0

      0100776FH   BLOCK     CODE     ---       LVL=0
      0100776FH   LINE      CODE     ---       #7679
      0100776FH   LINE      CODE     ---       #7680
      0100776FH   LINE      CODE     ---       #7681
      ---         BLOCKEND  ---      ---       LVL=0

      0100718AH   BLOCK     CODE     ---       LVL=0
      0100718AH   LINE      CODE     ---       #7686
      0100718AH   LINE      CODE     ---       #7687
      0100718AH   LINE      CODE     ---       #7689
      0100718DH   LINE      CODE     ---       #7690
      01007190H   LINE      CODE     ---       #7691
      01007193H   LINE      CODE     ---       #7692
      01007196H   LINE      CODE     ---       #7695
      01007199H   LINE      CODE     ---       #7704
      0100719CH   LINE      CODE     ---       #7705
      0100719FH   LINE      CODE     ---       #7707
      010071A1H   LINE      CODE     ---       #7708
      ---         BLOCKEND  ---      ---       LVL=0

      0100772FH   BLOCK     CODE     ---       LVL=0
      0100772FH   LINE      CODE     ---       #7715
      0100772FH   LINE      CODE     ---       #7716
      0100772FH   LINE      CODE     ---       #7719
      01007732H   LINE      CODE     ---       #7720
      ---         BLOCKEND  ---      ---       LVL=0

      0100774EH   BLOCK     CODE     ---       LVL=0
LX51 LINKER/LOCATER V4.41                                                             05/23/2018  09:43:07  PAGE 87


      0100774EH   LINE      CODE     ---       #7725
      0100774EH   LINE      CODE     ---       #7726
      0100774EH   LINE      CODE     ---       #7729
      ---         BLOCKEND  ---      ---       LVL=0

      01006B5BH   BLOCK     CODE     ---       LVL=0
      01006B7EH   BLOCK     CODE     NEAR LAB  LVL=1
      02000736H   SYMBOL    XDATA    BYTE      __nesc_temp
      ---         BLOCKEND  ---      ---       LVL=1
      01006B5BH   LINE      CODE     ---       #7735
      01006B5BH   LINE      CODE     ---       #7736
      01006B5BH   LINE      CODE     ---       #7738
      01006B5BH   LINE      CODE     ---       #7739
      01006B5EH   LINE      CODE     ---       #7740
      01006B63H   LINE      CODE     ---       #7741
      01006B67H   LINE      CODE     ---       #7742
      01006B6BH   LINE      CODE     ---       #7744
      01006B70H   LINE      CODE     ---       #7746
      01006B75H   LINE      CODE     ---       #7748
      01006B7EH   LINE      CODE     ---       #7750
      01006B7EH   LINE      CODE     ---       #7751
      01006B83H   LINE      CODE     ---       #7756
      01006B84H   LINE      CODE     ---       #7757
      01006B84H   LINE      CODE     ---       #7758
      01006B84H   LINE      CODE     ---       #7759
      ---         BLOCKEND  ---      ---       LVL=0

      01004D7BH   BLOCK     CODE     ---       LVL=0
      02000738H   SYMBOL    XDATA    BYTE      idx
      01004D80H   BLOCK     CODE     NEAR LAB  LVL=1
      02000739H   SYMBOL    XDATA    ---       t
      0200073CH   SYMBOL    XDATA    BYTE      end
      0200073DH   SYMBOL    XDATA    BYTE      next_idx
      01004E02H   BLOCK     CODE     NEAR LAB  LVL=2
      0200073EH   SYMBOL    XDATA    ---       __nesc_temp
      ---         BLOCKEND  ---      ---       LVL=2
      ---         BLOCKEND  ---      ---       LVL=1
      01004D7BH   LINE      CODE     ---       #7764
      01004D80H   LINE      CODE     ---       #7765
      01004D80H   LINE      CODE     ---       #7767
      01004D80H   LINE      CODE     ---       #7768
      01004D8EH   LINE      CODE     ---       #7769
      01004D9AH   LINE      CODE     ---       #7772
      01004DA0H   LINE      CODE     ---       #7773
      01004DA0H   LINE      CODE     ---       #7774
      01004DABH   LINE      CODE     ---       #7775
      01004DAFH   LINE      CODE     ---       #7777
      01004DBCH   LINE      CODE     ---       #7778
      01004DBCH   LINE      CODE     ---       #7779
      01004DC5H   LINE      CODE     ---       #7780
      01004DF0H   LINE      CODE     ---       #7781
      01004DF5H   LINE      CODE     ---       #7782
      01004DF7H   LINE      CODE     ---       #7784
      01004DFCH   LINE      CODE     ---       #7785
      01004E02H   LINE      CODE     ---       #7786
      01004E02H   LINE      CODE     ---       #7788
      01004E02H   LINE      CODE     ---       #7789
      01004E18H   LINE      CODE     ---       #7794
      01004E18H   LINE      CODE     ---       #7795
      01004E18H   LINE      CODE     ---       #7796
      01004E18H   LINE      CODE     ---       #7797
      ---         BLOCKEND  ---      ---       LVL=0

      01007389H   BLOCK     CODE     ---       LVL=0
      01007389H   LINE      CODE     ---       #7800
LX51 LINKER/LOCATER V4.41                                                             05/23/2018  09:43:07  PAGE 88


      01007389H   LINE      CODE     ---       #7801
      01007389H   LINE      CODE     ---       #7803
      01007389H   LINE      CODE     ---       #7804
      01007392H   LINE      CODE     ---       #7805
      01007392H   LINE      CODE     ---       #7806
      01007397H   LINE      CODE     ---       #7807
      01007399H   LINE      CODE     ---       #7808
      01007399H   LINE      CODE     ---       #7809
      ---         BLOCKEND  ---      ---       LVL=0

      01006FEEH   BLOCK     CODE     ---       LVL=0
      01007003H   BLOCK     CODE     NEAR LAB  LVL=1
      02000737H   SYMBOL    XDATA    BYTE      __nesc_temp
      ---         BLOCKEND  ---      ---       LVL=1
      01006FEEH   LINE      CODE     ---       #7814
      01006FEEH   LINE      CODE     ---       #7815
      01006FEEH   LINE      CODE     ---       #7817
      01006FEEH   LINE      CODE     ---       #7818
      01006FF1H   LINE      CODE     ---       #7819
      01006FF6H   LINE      CODE     ---       #7821
      01006FFBH   LINE      CODE     ---       #7823
      01007003H   LINE      CODE     ---       #7825
      01007003H   LINE      CODE     ---       #7826
      01007008H   LINE      CODE     ---       #7831
      01007009H   LINE      CODE     ---       #7832
      01007009H   LINE      CODE     ---       #7833
      01007009H   LINE      CODE     ---       #7834
      ---         BLOCKEND  ---      ---       LVL=0

      0100741DH   BLOCK     CODE     ---       LVL=0
      01007426H   BLOCK     CODE     NEAR LAB  LVL=1
      02000736H   SYMBOL    XDATA    BYTE      __nesc_temp
      ---         BLOCKEND  ---      ---       LVL=1
      0100741DH   LINE      CODE     ---       #7839
      0100741DH   LINE      CODE     ---       #7840
      0100741DH   LINE      CODE     ---       #7842
      0100741DH   LINE      CODE     ---       #7843
      01007420H   LINE      CODE     ---       #7845
      01007426H   LINE      CODE     ---       #7847
      01007426H   LINE      CODE     ---       #7848
      0100742BH   LINE      CODE     ---       #7853
      0100742CH   LINE      CODE     ---       #7854
      0100742CH   LINE      CODE     ---       #7855
      0100742CH   LINE      CODE     ---       #7856
      ---         BLOCKEND  ---      ---       LVL=0

      010074FAH   BLOCK     CODE     ---       LVL=0
      01007500H   BLOCK     CODE     NEAR LAB  LVL=1
      02000736H   SYMBOL    XDATA    BYTE      __nesc_temp
      ---         BLOCKEND  ---      ---       LVL=1
      010074FAH   LINE      CODE     ---       #7859
      010074FAH   LINE      CODE     ---       #7860
      010074FAH   LINE      CODE     ---       #7862
      010074FAH   LINE      CODE     ---       #7863
      01007500H   LINE      CODE     ---       #7865
      01007500H   LINE      CODE     ---       #7866
      01007505H   LINE      CODE     ---       #7871
      01007506H   LINE      CODE     ---       #7872
      01007506H   LINE      CODE     ---       #7873
      01007506H   LINE      CODE     ---       #7874
      ---         BLOCKEND  ---      ---       LVL=0

      010070DEH   BLOCK     CODE     ---       LVL=0
      ---         BLOCKEND  ---      ---       LVL=0

LX51 LINKER/LOCATER V4.41                                                             05/23/2018  09:43:07  PAGE 89


      010070E4H   BLOCK     CODE     ---       LVL=0
      00000007H   SYMBOL    DATA     BYTE      num
      010070E4H   LINE      CODE     ---       #7877
      010070E4H   LINE      CODE     ---       #7878
      010070E4H   LINE      CODE     ---       #7881
      010070F6H   LINE      CODE     ---       #7882
      ---         BLOCKEND  ---      ---       LVL=0

      01007078H   BLOCK     CODE     ---       LVL=0
      0100708BH   BLOCK     CODE     NEAR LAB  LVL=1
      02000737H   SYMBOL    XDATA    BYTE      __nesc_temp
      ---         BLOCKEND  ---      ---       LVL=1
      01007078H   LINE      CODE     ---       #7888
      01007078H   LINE      CODE     ---       #7889
      01007078H   LINE      CODE     ---       #7891
      01007078H   LINE      CODE     ---       #7892
      0100707DH   LINE      CODE     ---       #7893
      01007082H   LINE      CODE     ---       #7896
      01007082H   LINE      CODE     ---       #7897
      01007085H   LINE      CODE     ---       #7899
      0100708BH   LINE      CODE     ---       #7901
      0100708BH   LINE      CODE     ---       #7902
      01007090H   LINE      CODE     ---       #7907
      01007091H   LINE      CODE     ---       #7908
      01007091H   LINE      CODE     ---       #7909
      01007091H   LINE      CODE     ---       #7910
      ---         BLOCKEND  ---      ---       LVL=0

      010070F7H   BLOCK     CODE     ---       LVL=0
      01007109H   BLOCK     CODE     NEAR LAB  LVL=1
      02000736H   SYMBOL    XDATA    BYTE      __nesc_temp
      ---         BLOCKEND  ---      ---       LVL=1
      010070F7H   LINE      CODE     ---       #7915
      010070F7H   LINE      CODE     ---       #7916
      010070F7H   LINE      CODE     ---       #7918
      010070F7H   LINE      CODE     ---       #7919
      010070FCH   LINE      CODE     ---       #7920
      01007100H   LINE      CODE     ---       #7922
      01007103H   LINE      CODE     ---       #7924
      01007109H   LINE      CODE     ---       #7926
      01007109H   LINE      CODE     ---       #7927
      0100710EH   LINE      CODE     ---       #7932
      0100710FH   LINE      CODE     ---       #7933
      0100710FH   LINE      CODE     ---       #7934
      0100710FH   LINE      CODE     ---       #7935
      ---         BLOCKEND  ---      ---       LVL=0

      01007042H   BLOCK     CODE     ---       LVL=0
      01007056H   BLOCK     CODE     NEAR LAB  LVL=1
      02000736H   SYMBOL    XDATA    BYTE      __nesc_temp
      ---         BLOCKEND  ---      ---       LVL=1
      01007042H   LINE      CODE     ---       #7938
      01007042H   LINE      CODE     ---       #7939
      01007042H   LINE      CODE     ---       #7941
      01007042H   LINE      CODE     ---       #7942
      01007048H   LINE      CODE     ---       #7944
      01007056H   LINE      CODE     ---       #7946
      01007056H   LINE      CODE     ---       #7947
      0100705BH   LINE      CODE     ---       #7952
      0100705CH   LINE      CODE     ---       #7953
      0100705CH   LINE      CODE     ---       #7954
      0100705CH   LINE      CODE     ---       #7955
      ---         BLOCKEND  ---      ---       LVL=0

      0100700AH   BLOCK     CODE     ---       LVL=0
LX51 LINKER/LOCATER V4.41                                                             05/23/2018  09:43:07  PAGE 90


      0100701FH   BLOCK     CODE     NEAR LAB  LVL=1
      02000737H   SYMBOL    XDATA    BYTE      __nesc_temp
      ---         BLOCKEND  ---      ---       LVL=1
      0100700AH   LINE      CODE     ---       #7961
      0100700AH   LINE      CODE     ---       #7962
      0100700AH   LINE      CODE     ---       #7964
      0100700AH   LINE      CODE     ---       #7965
      0100700FH   LINE      CODE     ---       #7966
      01007014H   LINE      CODE     ---       #7969
      01007016H   LINE      CODE     ---       #7970
      01007019H   LINE      CODE     ---       #7972
      0100701FH   LINE      CODE     ---       #7974
      0100701FH   LINE      CODE     ---       #7975
      01007024H   LINE      CODE     ---       #7980
      01007025H   LINE      CODE     ---       #7981
      01007025H   LINE      CODE     ---       #7982
      01007025H   LINE      CODE     ---       #7983
      ---         BLOCKEND  ---      ---       LVL=0

      01007110H   BLOCK     CODE     ---       LVL=0
      01007122H   BLOCK     CODE     NEAR LAB  LVL=1
      02000736H   SYMBOL    XDATA    BYTE      __nesc_temp
      ---         BLOCKEND  ---      ---       LVL=1
      01007110H   LINE      CODE     ---       #7988
      01007110H   LINE      CODE     ---       #7989
      01007110H   LINE      CODE     ---       #7991
      01007110H   LINE      CODE     ---       #7992
      01007115H   LINE      CODE     ---       #7993
      01007119H   LINE      CODE     ---       #7995
      0100711CH   LINE      CODE     ---       #7997
      01007122H   LINE      CODE     ---       #7999
      01007122H   LINE      CODE     ---       #8000
      01007127H   LINE      CODE     ---       #8005
      01007128H   LINE      CODE     ---       #8006
      01007128H   LINE      CODE     ---       #8007
      01007128H   LINE      CODE     ---       #8008
      ---         BLOCKEND  ---      ---       LVL=0

      0100705DH   BLOCK     CODE     ---       LVL=0
      01007071H   BLOCK     CODE     NEAR LAB  LVL=1
      02000736H   SYMBOL    XDATA    BYTE      __nesc_temp
      ---         BLOCKEND  ---      ---       LVL=1
      0100705DH   LINE      CODE     ---       #8011
      0100705DH   LINE      CODE     ---       #8012
      0100705DH   LINE      CODE     ---       #8014
      0100705DH   LINE      CODE     ---       #8015
      01007063H   LINE      CODE     ---       #8017
      01007071H   LINE      CODE     ---       #8019
      01007071H   LINE      CODE     ---       #8020
      01007076H   LINE      CODE     ---       #8025
      01007077H   LINE      CODE     ---       #8026
      01007077H   LINE      CODE     ---       #8027
      01007077H   LINE      CODE     ---       #8028
      ---         BLOCKEND  ---      ---       LVL=0

      010064D1H   BLOCK     CODE     ---       LVL=0
      010064D1H   BLOCK     CODE     NEAR LAB  LVL=1
      02000735H   SYMBOL    XDATA    BYTE      result
      ---         BLOCKEND  ---      ---       LVL=1
      010064D1H   LINE      CODE     ---       #8031
      010064D1H   LINE      CODE     ---       #8037
      010064D9H   LINE      CODE     ---       #8039
      010064E1H   LINE      CODE     ---       #8041
      010064E9H   LINE      CODE     ---       #8043
      010064F1H   LINE      CODE     ---       #8045
LX51 LINKER/LOCATER V4.41                                                             05/23/2018  09:43:07  PAGE 91


      010064F9H   LINE      CODE     ---       #8047
      01006501H   LINE      CODE     ---       #8049
      01006509H   LINE      CODE     ---       #8053
      01006509H   LINE      CODE     ---       #8055
      ---         BLOCKEND  ---      ---       LVL=0

      01006A28H   BLOCK     CODE     ---       LVL=0
      01006A28H   BLOCK     CODE     NEAR LAB  LVL=1
      02000733H   SYMBOL    XDATA    BYTE      __nesc_atomic
      01006A44H   BLOCK     CODE     NEAR LAB  LVL=2
      02000734H   SYMBOL    XDATA    BYTE      __nesc_temp
      ---         BLOCKEND  ---      ---       LVL=2
      ---         BLOCKEND  ---      ---       LVL=1
      01006A28H   LINE      CODE     ---       #8060
      01006A28H   LINE      CODE     ---       #8061
      01006A28H   LINE      CODE     ---       #8062
      01006A30H   LINE      CODE     ---       #8064
      01006A38H   LINE      CODE     ---       #8066
      01006A3BH   LINE      CODE     ---       #8067
      01006A3EH   LINE      CODE     ---       #8069
      01006A44H   LINE      CODE     ---       #8071
      01006A44H   LINE      CODE     ---       #8072
      01006A49H   LINE      CODE     ---       #8078
      01006A51H   LINE      CODE     ---       #8080
      01006A54H   LINE      CODE     ---       #8081
      01006A54H   LINE      CODE     ---       #8082
      01006A54H   LINE      CODE     ---       #8083
      01006A54H   LINE      CODE     ---       #8085
      01006A54H   LINE      CODE     ---       #8086
      ---         BLOCKEND  ---      ---       LVL=0

      01004718H   BLOCK     CODE     ---       LVL=0
      01004733H   BLOCK     CODE     NEAR LAB  LVL=1
      02000732H   SYMBOL    XDATA    BYTE      __nesc_atomic
      02000732H   SYMBOL    XDATA    BYTE      __nesc_atomic
      02000732H   SYMBOL    XDATA    BYTE      __nesc_atomic
      ---         BLOCKEND  ---      ---       LVL=1
      01004766H   BLOCK     CODE     NEAR LAB  LVL=1
      02000732H   SYMBOL    XDATA    BYTE      __nesc_atomic
      02000732H   SYMBOL    XDATA    BYTE      __nesc_atomic
      ---         BLOCKEND  ---      ---       LVL=1
      010047B3H   BLOCK     CODE     NEAR LAB  LVL=1
      02000732H   SYMBOL    XDATA    BYTE      __nesc_atomic
      ---         BLOCKEND  ---      ---       LVL=1
      01004718H   LINE      CODE     ---       #8091
      01004718H   LINE      CODE     ---       #8092
      01004718H   LINE      CODE     ---       #8094
      0100471BH   LINE      CODE     ---       #8097
      0100471EH   LINE      CODE     ---       #8098
      0100471EH   LINE      CODE     ---       #8100
      01004720H   LINE      CODE     ---       #8101
      01004720H   LINE      CODE     ---       #8104
      01004720H   LINE      CODE     ---       #8106
      01004722H   LINE      CODE     ---       #8107
      01004722H   LINE      CODE     ---       #8111
      01004722H   LINE      CODE     ---       #8113
      01004722H   LINE      CODE     ---       #8115
      01004733H   LINE      CODE     ---       #8117
      0100473BH   LINE      CODE     ---       #8121
      01004752H   LINE      CODE     ---       #8122
      01004752H   LINE      CODE     ---       #8124
      01004752H   LINE      CODE     ---       #8126
      01004755H   LINE      CODE     ---       #8127
      01004755H   LINE      CODE     ---       #8128
      01004755H   LINE      CODE     ---       #8129
LX51 LINKER/LOCATER V4.41                                                             05/23/2018  09:43:07  PAGE 92


      01004755H   LINE      CODE     ---       #8132
      01004755H   LINE      CODE     ---       #8134
      01004755H   LINE      CODE     ---       #8136
      01004766H   LINE      CODE     ---       #8138
      0100476EH   LINE      CODE     ---       #8142
      0100479FH   LINE      CODE     ---       #8143
      0100479FH   LINE      CODE     ---       #8145
      0100479FH   LINE      CODE     ---       #8147
      010047A2H   LINE      CODE     ---       #8148
      010047A2H   LINE      CODE     ---       #8149
      010047A2H   LINE      CODE     ---       #8150
      010047A2H   LINE      CODE     ---       #8153
      010047A2H   LINE      CODE     ---       #8155
      010047A2H   LINE      CODE     ---       #8157
      010047B3H   LINE      CODE     ---       #8159
      010047BBH   LINE      CODE     ---       #8163
      010047D2H   LINE      CODE     ---       #8164
      010047D2H   LINE      CODE     ---       #8166
      010047D2H   LINE      CODE     ---       #8168
      010047D5H   LINE      CODE     ---       #8169
      010047D5H   LINE      CODE     ---       #8170
      010047D5H   LINE      CODE     ---       #8171
      010047D5H   LINE      CODE     ---       #8175
      010047DAH   LINE      CODE     ---       #8176
      ---         BLOCKEND  ---      ---       LVL=0

      01007770H   BLOCK     CODE     ---       LVL=0
      01007770H   LINE      CODE     ---       #8182
      01007770H   LINE      CODE     ---       #8183
      01007770H   LINE      CODE     ---       #8184
      ---         BLOCKEND  ---      ---       LVL=0

      010076F3H   BLOCK     CODE     ---       LVL=0
      02000734H   SYMBOL    XDATA    BYTE      reset_level
      010076F3H   LINE      CODE     ---       #8189
      010076F8H   LINE      CODE     ---       #8190
      010076F8H   LINE      CODE     ---       #8191
      ---         BLOCKEND  ---      ---       LVL=0

      01007751H   BLOCK     CODE     ---       LVL=0
      01007751H   LINE      CODE     ---       #8196
      01007751H   LINE      CODE     ---       #8198
      01007751H   LINE      CODE     ---       #8200
      01007753H   LINE      CODE     ---       #8201
      ---         BLOCKEND  ---      ---       LVL=0

      01007771H   BLOCK     CODE     ---       LVL=0
      01007771H   LINE      CODE     ---       #8204
      01007771H   LINE      CODE     ---       #8205
      01007771H   LINE      CODE     ---       #8206
      ---         BLOCKEND  ---      ---       LVL=0

      01006D81H   BLOCK     CODE     ---       LVL=0
      01006D81H   LINE      CODE     ---       #8211
      01006D81H   LINE      CODE     ---       #8212
      01006D81H   LINE      CODE     ---       #8215
      01006D87H   LINE      CODE     ---       #8216
      01006D87H   LINE      CODE     ---       #8220
      01006D87H   LINE      CODE     ---       #8222
      01006D8FH   LINE      CODE     ---       #8223
      01006D8FH   LINE      CODE     ---       #8224
      01006D8FH   LINE      CODE     ---       #8228
      01006D92H   LINE      CODE     ---       #8231
      01006D95H   LINE      CODE     ---       #8233
      01006D95H   LINE      CODE     ---       #8235
LX51 LINKER/LOCATER V4.41                                                             05/23/2018  09:43:07  PAGE 93


      01006D97H   LINE      CODE     ---       #8236
      01006D97H   LINE      CODE     ---       #8240
      01006D99H   LINE      CODE     ---       #8241
      01006D99H   LINE      CODE     ---       #8243
      01006D9CH   LINE      CODE     ---       #8244
      01006D9CH   LINE      CODE     ---       #8255
      01006D9CH   LINE      CODE     ---       #8257
      01006D9EH   LINE      CODE     ---       #8258
      01006D9EH   LINE      CODE     ---       #8262
      01006DA2H   LINE      CODE     ---       #8265
      01006DA5H   LINE      CODE     ---       #8266
      01006DA5H   LINE      CODE     ---       #8268
      01006DA5H   LINE      CODE     ---       #8269
      01006DA5H   LINE      CODE     ---       #8270
      ---         BLOCKEND  ---      ---       LVL=0

      01007772H   BLOCK     CODE     ---       LVL=0
      01007772H   LINE      CODE     ---       #8277
      01007772H   LINE      CODE     ---       #8278
      01007772H   LINE      CODE     ---       #8279
      ---         BLOCKEND  ---      ---       LVL=0

      01007773H   BLOCK     CODE     ---       LVL=0
      01007773H   LINE      CODE     ---       #8282
      01007773H   LINE      CODE     ---       #8283
      01007773H   LINE      CODE     ---       #8284
      ---         BLOCKEND  ---      ---       LVL=0

      010076F9H   BLOCK     CODE     ---       LVL=0
      010076F9H   LINE      CODE     ---       #8287
      010076F9H   LINE      CODE     ---       #8289
      010076FCH   LINE      CODE     ---       #8291
      ---         BLOCKEND  ---      ---       LVL=0

      01005D39H   BLOCK     CODE     ---       LVL=0
      01005D39H   BLOCK     CODE     NEAR LAB  LVL=1
      02000738H   SYMBOL    XDATA    BYTE      __nesc_atomic
      ---         BLOCKEND  ---      ---       LVL=1
      01005D39H   LINE      CODE     ---       #8296
      01005D39H   LINE      CODE     ---       #8297
      01005D39H   LINE      CODE     ---       #8298
      01005D41H   LINE      CODE     ---       #8300
      01005D60H   LINE      CODE     ---       #8302
      01005D79H   LINE      CODE     ---       #8303
      01005D79H   LINE      CODE     ---       #8304
      01005D7CH   LINE      CODE     ---       #8305
      01005D7CH   LINE      CODE     ---       #8306
      01005D7CH   LINE      CODE     ---       #8308
      ---         BLOCKEND  ---      ---       LVL=0

      01007774H   BLOCK     CODE     ---       LVL=0
      01007774H   LINE      CODE     ---       #8312
      01007774H   LINE      CODE     ---       #8313
      01007774H   LINE      CODE     ---       #8314
      ---         BLOCKEND  ---      ---       LVL=0

      01006B06H   BLOCK     CODE     ---       LVL=0
      01006B06H   BLOCK     CODE     NEAR LAB  LVL=1
      02000738H   SYMBOL    XDATA    BYTE      __nesc_atomic
      ---         BLOCKEND  ---      ---       LVL=1
      01006B06H   LINE      CODE     ---       #8319
      01006B06H   LINE      CODE     ---       #8320
      01006B06H   LINE      CODE     ---       #8321
      01006B0EH   LINE      CODE     ---       #8323
      01006B1CH   LINE      CODE     ---       #8325
LX51 LINKER/LOCATER V4.41                                                             05/23/2018  09:43:07  PAGE 94


      01006B26H   LINE      CODE     ---       #8326
      01006B26H   LINE      CODE     ---       #8327
      01006B29H   LINE      CODE     ---       #8328
      01006B29H   LINE      CODE     ---       #8329
      01006B29H   LINE      CODE     ---       #8331
      ---         BLOCKEND  ---      ---       LVL=0

      010076FFH   BLOCK     CODE     ---       LVL=0
      010076FFH   LINE      CODE     ---       #8335
      010076FFH   LINE      CODE     ---       #8337
      01007702H   LINE      CODE     ---       #8339
      ---         BLOCKEND  ---      ---       LVL=0

      01007775H   BLOCK     CODE     ---       LVL=0
      01007775H   LINE      CODE     ---       #8344
      01007775H   LINE      CODE     ---       #8346
      01007775H   LINE      CODE     ---       #8347
      ---         BLOCKEND  ---      ---       LVL=0

      010066E6H   BLOCK     CODE     ---       LVL=0
      010066E6H   LINE      CODE     ---       #8354
      010066E6H   LINE      CODE     ---       #8355
      010066E6H   LINE      CODE     ---       #8356
      010066FAH   LINE      CODE     ---       #8357
      010066FCH   LINE      CODE     ---       #8359
      010066FEH   LINE      CODE     ---       #8360
      010066FEH   LINE      CODE     ---       #8362
      01006711H   LINE      CODE     ---       #8363
      01006718H   LINE      CODE     ---       #8364
      ---         BLOCKEND  ---      ---       LVL=0

      01007129H   BLOCK     CODE     ---       LVL=0
      01007129H   LINE      CODE     ---       #8366
      01007129H   LINE      CODE     ---       #8367
      01007129H   LINE      CODE     ---       #8370
      01007136H   LINE      CODE     ---       #8371
      01007136H   LINE      CODE     ---       #8372
      0100713CH   LINE      CODE     ---       #8373
      0100713CH   LINE      CODE     ---       #8375
      0100713CH   LINE      CODE     ---       #8376
      01007141H   LINE      CODE     ---       #8377
      01007141H   LINE      CODE     ---       #8378
      ---         BLOCKEND  ---      ---       LVL=0

      01006B85H   BLOCK     CODE     ---       LVL=0
      01006B85H   LINE      CODE     ---       #8381
      01006B85H   LINE      CODE     ---       #8382
      01006B85H   LINE      CODE     ---       #8383
      01006B8CH   LINE      CODE     ---       #8384
      01006B8CH   LINE      CODE     ---       #8385
      01006B8FH   LINE      CODE     ---       #8387
      01006B8FH   LINE      CODE     ---       #8392
      01006B95H   LINE      CODE     ---       #8393
      01006B95H   LINE      CODE     ---       #8394
      01006B97H   LINE      CODE     ---       #8397
      01006BA2H   LINE      CODE     ---       #8398
      01006BA2H   LINE      CODE     ---       #8399
      01006BA2H   LINE      CODE     ---       #8401
      01006BA9H   LINE      CODE     ---       #8402
      01006BA9H   LINE      CODE     ---       #8403
      01006BAEH   LINE      CODE     ---       #8404
      01006BAEH   LINE      CODE     ---       #8406
      01006BAEH   LINE      CODE     ---       #8407
      01006BAEH   LINE      CODE     ---       #8408
      01006BAEH   LINE      CODE     ---       #8409
LX51 LINKER/LOCATER V4.41                                                             05/23/2018  09:43:07  PAGE 95


      ---         BLOCKEND  ---      ---       LVL=0

      01006877H   BLOCK     CODE     ---       LVL=0
      01006877H   BLOCK     CODE     NEAR LAB  LVL=1
      02000738H   SYMBOL    XDATA    BYTE      __nesc_atomic
      ---         BLOCKEND  ---      ---       LVL=1
      01006877H   LINE      CODE     ---       #8414
      01006877H   LINE      CODE     ---       #8415
      01006877H   LINE      CODE     ---       #8416
      0100687FH   LINE      CODE     ---       #8418
      01006898H   LINE      CODE     ---       #8419
      01006898H   LINE      CODE     ---       #8420
      0100689BH   LINE      CODE     ---       #8421
      0100689DH   LINE      CODE     ---       #8423
      0100689DH   LINE      CODE     ---       #8424
      010068A0H   LINE      CODE     ---       #8425
      010068A0H   LINE      CODE     ---       #8426
      010068A0H   LINE      CODE     ---       #8428
      ---         BLOCKEND  ---      ---       LVL=0

      01007722H   BLOCK     CODE     ---       LVL=0
      01007722H   LINE      CODE     ---       #8436
      01007722H   LINE      CODE     ---       #8437
      01007722H   LINE      CODE     ---       #8438
      ---         BLOCKEND  ---      ---       LVL=0

      010068A8H   BLOCK     CODE     ---       LVL=0
      010068A8H   BLOCK     CODE     NEAR LAB  LVL=1
      02000738H   SYMBOL    XDATA    BYTE      __nesc_atomic
      ---         BLOCKEND  ---      ---       LVL=1
      010068A8H   LINE      CODE     ---       #8444
      010068A8H   LINE      CODE     ---       #8445
      010068A8H   LINE      CODE     ---       #8446
      010068B0H   LINE      CODE     ---       #8448
      010068C9H   LINE      CODE     ---       #8449
      010068C9H   LINE      CODE     ---       #8450
      010068CCH   LINE      CODE     ---       #8451
      010068CEH   LINE      CODE     ---       #8453
      010068CEH   LINE      CODE     ---       #8454
      010068D1H   LINE      CODE     ---       #8455
      010068D1H   LINE      CODE     ---       #8456
      010068D1H   LINE      CODE     ---       #8458
      ---         BLOCKEND  ---      ---       LVL=0

      0100595FH   BLOCK     CODE     ---       LVL=0
      0100595FH   BLOCK     CODE     NEAR LAB  LVL=1
      02000736H   SYMBOL    XDATA    BYTE      flag
      010059AAH   BLOCK     CODE     NEAR LAB  LVL=2
      02000737H   SYMBOL    XDATA    BYTE      __nesc_atomic
      ---         BLOCKEND  ---      ---       LVL=2
      ---         BLOCKEND  ---      ---       LVL=1
      0100595FH   LINE      CODE     ---       #8464
      0100595FH   LINE      CODE     ---       #8465
      0100595FH   LINE      CODE     ---       #8468
      0100595FH   LINE      CODE     ---       #8470
      01005967H   LINE      CODE     ---       #8472
      01005969H   LINE      CODE     ---       #8473
      01005969H   LINE      CODE     ---       #8474
      01005969H   LINE      CODE     ---       #8478
      01005969H   LINE      CODE     ---       #8479
      01005972H   LINE      CODE     ---       #8480
      01005977H   LINE      CODE     ---       #8481
      01005977H   LINE      CODE     ---       #8483
      01005977H   LINE      CODE     ---       #8485
      0100597FH   LINE      CODE     ---       #8486
LX51 LINKER/LOCATER V4.41                                                             05/23/2018  09:43:07  PAGE 96


      0100597FH   LINE      CODE     ---       #8487
      0100597FH   LINE      CODE     ---       #8492
      01005983H   LINE      CODE     ---       #8493
      01005983H   LINE      CODE     ---       #8494
      01005986H   LINE      CODE     ---       #8495
      01005986H   LINE      CODE     ---       #8497
      0100598DH   LINE      CODE     ---       #8498
      0100598DH   LINE      CODE     ---       #8499
      01005990H   LINE      CODE     ---       #8500
      01005990H   LINE      CODE     ---       #8502
      01005997H   LINE      CODE     ---       #8503
      01005997H   LINE      CODE     ---       #8504
      0100599AH   LINE      CODE     ---       #8505
      0100599AH   LINE      CODE     ---       #8507
      0100599AH   LINE      CODE     ---       #8508
      0100599AH   LINE      CODE     ---       #8509
      0100599AH   LINE      CODE     ---       #8512
      0100599AH   LINE      CODE     ---       #8513
      0100599AH   LINE      CODE     ---       #8514
      0100599AH   LINE      CODE     ---       #8517
      010059A1H   LINE      CODE     ---       #8518
      010059A1H   LINE      CODE     ---       #8519
      010059A4H   LINE      CODE     ---       #8520
      010059A4H   LINE      CODE     ---       #8523
      010059AAH   LINE      CODE     ---       #8524
      010059AAH   LINE      CODE     ---       #8525
      010059AAH   LINE      CODE     ---       #8527
      010059B2H   LINE      CODE     ---       #8531
      010059B5H   LINE      CODE     ---       #8532
      010059B5H   LINE      CODE     ---       #8534
      010059B8H   LINE      CODE     ---       #8535
      010059B8H   LINE      CODE     ---       #8538
      010059B8H   LINE      CODE     ---       #8539
      ---         BLOCKEND  ---      ---       LVL=0

      01007754H   BLOCK     CODE     ---       LVL=0
      01007754H   LINE      CODE     ---       #8544
      01007754H   LINE      CODE     ---       #8545
      01007754H   LINE      CODE     ---       #8546
      01007756H   LINE      CODE     ---       #8547
      ---         BLOCKEND  ---      ---       LVL=0

      01007685H   BLOCK     CODE     ---       LVL=0
      01007685H   LINE      CODE     ---       #8552
      01007685H   LINE      CODE     ---       #8553
      01007685H   LINE      CODE     ---       #8554
      0100768DH   LINE      CODE     ---       #8555
      ---         BLOCKEND  ---      ---       LVL=0

      01003967H   BLOCK     CODE     ---       LVL=0
      0200073BH   SYMBOL    XDATA    BYTE      c
      0100397EH   BLOCK     CODE     NEAR LAB  LVL=1
      0200073CH   SYMBOL    XDATA    ---       payload
      010039CEH   BLOCK     CODE     NEAR LAB  LVL=2
      0200073FH   SYMBOL    XDATA    BYTE      __nesc_atomic
      ---         BLOCKEND  ---      ---       LVL=2
      ---         BLOCKEND  ---      ---       LVL=1
      01003A37H   BLOCK     CODE     NEAR LAB  LVL=1
      0200073CH   SYMBOL    XDATA    BYTE      __nesc_atomic
      ---         BLOCKEND  ---      ---       LVL=1
      01003967H   LINE      CODE     ---       #8560
      0100396CH   LINE      CODE     ---       #8561
      0100396CH   LINE      CODE     ---       #8563
      01003973H   LINE      CODE     ---       #8564
      01003973H   LINE      CODE     ---       #8565
LX51 LINKER/LOCATER V4.41                                                             05/23/2018  09:43:07  PAGE 97


      0100397EH   LINE      CODE     ---       #8566
      0100397EH   LINE      CODE     ---       #8567
      0100399DH   LINE      CODE     ---       #8570
      010039ABH   LINE      CODE     ---       #8571
      010039ABH   LINE      CODE     ---       #8573
      010039ABH   LINE      CODE     ---       #8575
      010039BDH   LINE      CODE     ---       #8576
      010039BDH   LINE      CODE     ---       #8578
      010039BDH   LINE      CODE     ---       #8580
      010039CEH   LINE      CODE     ---       #8582
      010039D6H   LINE      CODE     ---       #8586
      010039F5H   LINE      CODE     ---       #8587
      010039F5H   LINE      CODE     ---       #8589
      010039F8H   LINE      CODE     ---       #8591
      010039FBH   LINE      CODE     ---       #8592
      010039FBH   LINE      CODE     ---       #8593
      010039FBH   LINE      CODE     ---       #8594
      010039FBH   LINE      CODE     ---       #8598
      01003A04H   LINE      CODE     ---       #8599
      01003A05H   LINE      CODE     ---       #8601
      01003A05H   LINE      CODE     ---       #8604
      01003A05H   LINE      CODE     ---       #8605
      01003A0EH   LINE      CODE     ---       #8606
      01003A0EH   LINE      CODE     ---       #8607
      01003A26H   LINE      CODE     ---       #8608
      01003A26H   LINE      CODE     ---       #8610
      01003A26H   LINE      CODE     ---       #8612
      01003A37H   LINE      CODE     ---       #8614
      01003A3FH   LINE      CODE     ---       #8618
      01003A5EH   LINE      CODE     ---       #8619
      01003A5EH   LINE      CODE     ---       #8621
      01003A61H   LINE      CODE     ---       #8623
      01003A64H   LINE      CODE     ---       #8624
      01003A64H   LINE      CODE     ---       #8625
      01003A64H   LINE      CODE     ---       #8626
      01003A64H   LINE      CODE     ---       #8629
      01003A64H   LINE      CODE     ---       #8631
      01003A6BH   LINE      CODE     ---       #8632
      01003A6CH   LINE      CODE     ---       #8634
      01003A6CH   LINE      CODE     ---       #8637
      01003A6CH   LINE      CODE     ---       #8639
      01003A73H   LINE      CODE     ---       #8640
      01003A73H   LINE      CODE     ---       #8641
      01003A75H   LINE      CODE     ---       #8642
      01003A77H   LINE      CODE     ---       #8644
      01003A77H   LINE      CODE     ---       #8646
      01003A7DH   LINE      CODE     ---       #8647
      01003A82H   LINE      CODE     ---       #8648
      01003A82H   LINE      CODE     ---       #8649
      01003A82H   LINE      CODE     ---       #8650
      ---         BLOCKEND  ---      ---       LVL=0

      01007342H   BLOCK     CODE     ---       LVL=0
      0200073BH   SYMBOL    XDATA    ---       buf
      0200073EH   SYMBOL    XDATA    WORD      len
      02000740H   SYMBOL    XDATA    BYTE      error
      01007342H   LINE      CODE     ---       #8655
      01007353H   LINE      CODE     ---       #8656
      01007353H   LINE      CODE     ---       #8657
      ---         BLOCKEND  ---      ---       LVL=0

      010052E9H   BLOCK     CODE     ---       LVL=0
      02000737H   SYMBOL    XDATA    BYTE      _data
      0100532BH   BLOCK     CODE     NEAR LAB  LVL=1
      02000738H   SYMBOL    XDATA    ---       buf
LX51 LINKER/LOCATER V4.41                                                             05/23/2018  09:43:07  PAGE 98


      ---         BLOCKEND  ---      ---       LVL=1
      010052E9H   LINE      CODE     ---       #8662
      010052EEH   LINE      CODE     ---       #8663
      010052EEH   LINE      CODE     ---       #8664
      010052FEH   LINE      CODE     ---       #8665
      010052FEH   LINE      CODE     ---       #8666
      01005316H   LINE      CODE     ---       #8667
      0100532BH   LINE      CODE     ---       #8668
      0100532BH   LINE      CODE     ---       #8669
      01005340H   LINE      CODE     ---       #8672
      01005349H   LINE      CODE     ---       #8673
      0100535CH   LINE      CODE     ---       #8674
      0100535CH   LINE      CODE     ---       #8675
      0100535CH   LINE      CODE     ---       #8677
      0100535CH   LINE      CODE     ---       #8678
      01005364H   LINE      CODE     ---       #8679
      01005364H   LINE      CODE     ---       #8680
      ---         BLOCKEND  ---      ---       LVL=0

      01005C07H   BLOCK     CODE     ---       LVL=0
      01005C07H   BLOCK     CODE     NEAR LAB  LVL=1
      00000005H   SYMBOL    DATA     BYTE      _data
      01005C47H   BLOCK     CODE     NEAR LAB  LVL=2
      02000736H   SYMBOL    XDATA    BYTE      __nesc_atomic
      ---         BLOCKEND  ---      ---       LVL=2
      ---         BLOCKEND  ---      ---       LVL=1
      01005C07H   LINE      CODE     ---       #8685
      01005C07H   LINE      CODE     ---       #8686
      01005C07H   LINE      CODE     ---       #8689
      01005C1AH   LINE      CODE     ---       #8690
      01005C1AH   LINE      CODE     ---       #8691
      01005C1AH   LINE      CODE     ---       #8693
      01005C28H   LINE      CODE     ---       #8695
      01005C30H   LINE      CODE     ---       #8696
      01005C30H   LINE      CODE     ---       #8700
      01005C35H   LINE      CODE     ---       #8702
      01005C47H   LINE      CODE     ---       #8703
      01005C47H   LINE      CODE     ---       #8704
      01005C47H   LINE      CODE     ---       #8706
      01005C4FH   LINE      CODE     ---       #8710
      01005C52H   LINE      CODE     ---       #8711
      01005C52H   LINE      CODE     ---       #8713
      01005C55H   LINE      CODE     ---       #8714
      01005C55H   LINE      CODE     ---       #8717
      01005C55H   LINE      CODE     ---       #8718
      01005C55H   LINE      CODE     ---       #8719
      ---         BLOCKEND  ---      ---       LVL=0

      01007354H   BLOCK     CODE     ---       LVL=0
      02000739H   SYMBOL    XDATA    ---       buf
      0200073CH   SYMBOL    XDATA    WORD      len
      0200073EH   SYMBOL    XDATA    BYTE      error
      01007354H   LINE      CODE     ---       #8722
      01007365H   LINE      CODE     ---       #8723
      01007365H   LINE      CODE     ---       #8724
      ---         BLOCKEND  ---      ---       LVL=0

      010071D1H   BLOCK     CODE     ---       LVL=0
      00000007H   SYMBOL    DATA     BYTE      _data
      010071D4H   BLOCK     CODE     NEAR LAB  LVL=1
      02000739H   SYMBOL    XDATA    BYTE      __nesc_atomic
      ---         BLOCKEND  ---      ---       LVL=1
      010071D1H   LINE      CODE     ---       #8729
      010071D1H   LINE      CODE     ---       #8730
      010071D1H   LINE      CODE     ---       #8734
LX51 LINKER/LOCATER V4.41                                                             05/23/2018  09:43:07  PAGE 99


      010071D4H   LINE      CODE     ---       #8735
      010071D4H   LINE      CODE     ---       #8737
      010071DCH   LINE      CODE     ---       #8741
      010071E2H   LINE      CODE     ---       #8742
      010071E2H   LINE      CODE     ---       #8744
      010071E5H   LINE      CODE     ---       #8745
      010071E5H   LINE      CODE     ---       #8750
      010071E7H   LINE      CODE     ---       #8751
      ---         BLOCKEND  ---      ---       LVL=0

      0100569DH   BLOCK     CODE     ---       LVL=0
      010056D3H   BLOCK     CODE     NEAR LAB  LVL=1
      02000736H   SYMBOL    XDATA    ---       buf
      ---         BLOCKEND  ---      ---       LVL=1
      0100569DH   LINE      CODE     ---       #8756
      0100569DH   LINE      CODE     ---       #8757
      0100569DH   LINE      CODE     ---       #8758
      010056B6H   LINE      CODE     ---       #8759
      010056B6H   LINE      CODE     ---       #8760
      010056D3H   LINE      CODE     ---       #8761
      010056D3H   LINE      CODE     ---       #8763
      010056D3H   LINE      CODE     ---       #8764
      010056E4H   LINE      CODE     ---       #8767
      010056EDH   LINE      CODE     ---       #8768
      01005708H   LINE      CODE     ---       #8769
      01005708H   LINE      CODE     ---       #8770
      ---         BLOCKEND  ---      ---       LVL=0

      01007757H   BLOCK     CODE     ---       LVL=0
      01007757H   LINE      CODE     ---       #8775
      01007757H   LINE      CODE     ---       #8776
      01007757H   LINE      CODE     ---       #8777
      ---         BLOCKEND  ---      ---       LVL=0

      0100739AH   BLOCK     CODE     ---       LVL=0
      ---         BLOCKEND  ---      ---       LVL=0

      010073A7H   BLOCK     CODE     ---       LVL=0
      00000001H   SYMBOL    DATA     ---       source
      010073A7H   LINE      CODE     ---       #8781
      010073A7H   LINE      CODE     ---       #8783
      010073A7H   LINE      CODE     ---       #8785
      010073AAH   LINE      CODE     ---       #8786
      ---         BLOCKEND  ---      ---       LVL=0

      01007478H   BLOCK     CODE     ---       LVL=0
      0200074BH   SYMBOL    XDATA    BYTE      id
      0200074CH   SYMBOL    XDATA    ---       msg
      0200074FH   SYMBOL    XDATA    ---       payload
      02000752H   SYMBOL    XDATA    BYTE      len
      01007478H   LINE      CODE     ---       #8789
      01007486H   LINE      CODE     ---       #8790
      01007486H   LINE      CODE     ---       #8791
      ---         BLOCKEND  ---      ---       LVL=0

      01003280H   BLOCK     CODE     ---       LVL=0
      02000763H   SYMBOL    XDATA    ---       msg
      02000766H   SYMBOL    XDATA    ---       payload
      02000769H   SYMBOL    XDATA    BYTE      len
      0100328BH   BLOCK     CODE     NEAR LAB  LVL=1
      0200076AH   SYMBOL    XDATA    FLOAT     temp
      0200076EH   SYMBOL    XDATA    FLOAT     hum
      02000772H   SYMBOL    XDATA    BYTE      i
      010032A7H   BLOCK     CODE     NEAR LAB  LVL=2
      02000773H   SYMBOL    XDATA    BYTE      __nesc_atomic
LX51 LINKER/LOCATER V4.41                                                             05/23/2018  09:43:07  PAGE 100


      02000773H   SYMBOL    XDATA    BYTE      __nesc_atomic
      ---         BLOCKEND  ---      ---       LVL=2
      010032F7H   BLOCK     CODE     NEAR LAB  LVL=2
      02000773H   SYMBOL    XDATA    BYTE      __nesc_atomic
      ---         BLOCKEND  ---      ---       LVL=2
      01003387H   BLOCK     CODE     NEAR LAB  LVL=2
      02000773H   SYMBOL    XDATA    BYTE      __nesc_atomic
      02000773H   SYMBOL    XDATA    BYTE      __nesc_atomic
      ---         BLOCKEND  ---      ---       LVL=2
      010033D9H   BLOCK     CODE     NEAR LAB  LVL=2
      02000773H   SYMBOL    XDATA    BYTE      __nesc_atomic
      ---         BLOCKEND  ---      ---       LVL=2
      ---         BLOCKEND  ---      ---       LVL=1
      01003280H   LINE      CODE     ---       #8796
      0100328BH   LINE      CODE     ---       #8797
      0100328BH   LINE      CODE     ---       #8804
      01003296H   LINE      CODE     ---       #8805
      01003296H   LINE      CODE     ---       #8806
      01003296H   LINE      CODE     ---       #8808
      01003296H   LINE      CODE     ---       #8810
      010032A7H   LINE      CODE     ---       #8812
      010032AFH   LINE      CODE     ---       #8816
      010032DDH   LINE      CODE     ---       #8817
      010032DDH   LINE      CODE     ---       #8819
      010032E0H   LINE      CODE     ---       #8821
      010032E3H   LINE      CODE     ---       #8822
      010032E3H   LINE      CODE     ---       #8823
      010032E3H   LINE      CODE     ---       #8824
      010032E3H   LINE      CODE     ---       #8827
      010032E3H   LINE      CODE     ---       #8829
      010032E3H   LINE      CODE     ---       #8831
      010032F7H   LINE      CODE     ---       #8833
      010032FFH   LINE      CODE     ---       #8837
      01003330H   LINE      CODE     ---       #8838
      01003330H   LINE      CODE     ---       #8840
      01003338H   LINE      CODE     ---       #8842
      0100333BH   LINE      CODE     ---       #8843
      0100333BH   LINE      CODE     ---       #8844
      0100333BH   LINE      CODE     ---       #8845
      0100333BH   LINE      CODE     ---       #8848
      0100333BH   LINE      CODE     ---       #8851
      0100333BH   LINE      CODE     ---       #8852
      01003353H   LINE      CODE     ---       #8853
      01003370H   LINE      CODE     ---       #8854
      01003376H   LINE      CODE     ---       #8855
      01003376H   LINE      CODE     ---       #8856
      01003376H   LINE      CODE     ---       #8858
      01003376H   LINE      CODE     ---       #8860
      01003387H   LINE      CODE     ---       #8862
      0100338FH   LINE      CODE     ---       #8866
      010033BAH   LINE      CODE     ---       #8867
      010033BAH   LINE      CODE     ---       #8869
      010033BDH   LINE      CODE     ---       #8871
      010033C0H   LINE      CODE     ---       #8872
      010033C0H   LINE      CODE     ---       #8873
      010033C0H   LINE      CODE     ---       #8874
      010033C0H   LINE      CODE     ---       #8877
      010033C6H   LINE      CODE     ---       #8878
      010033C8H   LINE      CODE     ---       #8881
      010033C8H   LINE      CODE     ---       #8882
      010033C8H   LINE      CODE     ---       #8884
      010033C8H   LINE      CODE     ---       #8886
      010033D9H   LINE      CODE     ---       #8888
      010033E1H   LINE      CODE     ---       #8892
      0100340CH   LINE      CODE     ---       #8893
LX51 LINKER/LOCATER V4.41                                                             05/23/2018  09:43:07  PAGE 101


      0100340CH   LINE      CODE     ---       #8895
      0100340FH   LINE      CODE     ---       #8897
      01003412H   LINE      CODE     ---       #8898
      01003412H   LINE      CODE     ---       #8899
      01003412H   LINE      CODE     ---       #8900
      01003412H   LINE      CODE     ---       #8903
      01003417H   LINE      CODE     ---       #8904
      01003417H   LINE      CODE     ---       #8911
      01003417H   LINE      CODE     ---       #8913
      01003419H   LINE      CODE     ---       #8914
      01003419H   LINE      CODE     ---       #8918
      0100341EH   LINE      CODE     ---       #8919
      0100341EH   LINE      CODE     ---       #8920
      ---         BLOCKEND  ---      ---       LVL=0

      01007366H   BLOCK     CODE     ---       LVL=0
      ---         BLOCKEND  ---      ---       LVL=0

      01007371H   BLOCK     CODE     ---       LVL=0
      00000001H   SYMBOL    DATA     ---       amsg
      01007371H   LINE      CODE     ---       #8925
      01007371H   LINE      CODE     ---       #8926
      01007371H   LINE      CODE     ---       #8927
      01007377H   LINE      CODE     ---       #8928
      ---         BLOCKEND  ---      ---       LVL=0

      01006579H   BLOCK     CODE     ---       LVL=0
      ---         BLOCKEND  ---      ---       LVL=0

      0100658BH   BLOCK     CODE     ---       LVL=0
      00000002H   SYMBOL    DATA     BYTE      field_id
      00000004H   SYMBOL    DATA     WORD      addr
      00000003H   SYMBOL    DATA     BYTE      dsn
      0100658DH   BLOCK     CODE     NEAR LAB  LVL=1
      02000763H   SYMBOL    XDATA    BYTE      __nesc_atomic
      01006595H   BLOCK     CODE     NEAR LAB  LVL=2
      02000764H   SYMBOL    XDATA    BYTE      __nesc_temp
      ---         BLOCKEND  ---      ---       LVL=2
      ---         BLOCKEND  ---      ---       LVL=1
      0100658BH   LINE      CODE     ---       #8933
      0100658DH   LINE      CODE     ---       #8934
      0100658DH   LINE      CODE     ---       #8935
      01006595H   LINE      CODE     ---       #8937
      01006595H   LINE      CODE     ---       #8938
      010065A3H   LINE      CODE     ---       #8944
      010065ABH   LINE      CODE     ---       #8946
      010065AEH   LINE      CODE     ---       #8947
      010065AEH   LINE      CODE     ---       #8948
      010065AEH   LINE      CODE     ---       #8949
      010065AEH   LINE      CODE     ---       #8951
      010065AEH   LINE      CODE     ---       #8952
      ---         BLOCKEND  ---      ---       LVL=0

      01007487H   BLOCK     CODE     ---       LVL=0
      ---         BLOCKEND  ---      ---       LVL=0

      0100748FH   BLOCK     CODE     ---       LVL=0
      00000001H   SYMBOL    DATA     ---       amsg
      0100748FH   LINE      CODE     ---       #8961
      0100748FH   LINE      CODE     ---       #8962
      0100748FH   LINE      CODE     ---       #8963
      01007495H   LINE      CODE     ---       #8964
      ---         BLOCKEND  ---      ---       LVL=0

      01003CB0H   BLOCK     CODE     ---       LVL=0
LX51 LINKER/LOCATER V4.41                                                             05/23/2018  09:43:07  PAGE 102


      02000756H   SYMBOL    XDATA    ---       msg
      02000759H   SYMBOL    XDATA    ---       payload
      0200075CH   SYMBOL    XDATA    BYTE      len
      01003CC7H   BLOCK     CODE     NEAR LAB  LVL=1
      0200075DH   SYMBOL    XDATA    ---       header
      02000760H   SYMBOL    XDATA    ---       ack_header
      ---         BLOCKEND  ---      ---       LVL=1
      01003CB0H   LINE      CODE     ---       #8989
      01003CBBH   LINE      CODE     ---       #8990
      01003CBBH   LINE      CODE     ---       #8991
      01003CC7H   LINE      CODE     ---       #8992
      01003CC7H   LINE      CODE     ---       #8993
      01003CD8H   LINE      CODE     ---       #8994
      01003CF5H   LINE      CODE     ---       #8996
      01003D10H   LINE      CODE     ---       #8997
      01003D15H   LINE      CODE     ---       #9003
      01003D26H   LINE      CODE     ---       #9004
      01003D26H   LINE      CODE     ---       #9005
      01003D53H   LINE      CODE     ---       #9007
      01003D64H   LINE      CODE     ---       #9009
      01003D74H   LINE      CODE     ---       #9011
      01003D79H   LINE      CODE     ---       #9012
      01003D79H   LINE      CODE     ---       #9015
      01003D85H   LINE      CODE     ---       #9016
      01003D85H   LINE      CODE     ---       #9017
      01003D87H   LINE      CODE     ---       #9018
      01003D87H   LINE      CODE     ---       #9020
      01003DB2H   LINE      CODE     ---       #9021
      01003DB2H   LINE      CODE     ---       #9024
      01003DBDH   LINE      CODE     ---       #9025
      ---         BLOCKEND  ---      ---       LVL=0

      01007550H   BLOCK     CODE     ---       LVL=0
      02000779H   SYMBOL    XDATA    ---       msg
      0200077CH   SYMBOL    XDATA    ---       trace_ack
      01007550H   LINE      CODE     ---       #9028
      0100755BH   LINE      CODE     ---       #9029
      0100755BH   LINE      CODE     ---       #9030
      ---         BLOCKEND  ---      ---       LVL=0

      01004153H   BLOCK     CODE     ---       LVL=0
      02000771H   SYMBOL    XDATA    ---       msg
      02000774H   SYMBOL    XDATA    ---       trace_ack
      01004156H   BLOCK     CODE     NEAR LAB  LVL=1
      02000777H   SYMBOL    XDATA    INT       index
      ---         BLOCKEND  ---      ---       LVL=1
      01004153H   LINE      CODE     ---       #9035
      01004156H   LINE      CODE     ---       #9036
      01004156H   LINE      CODE     ---       #9037
      01004167H   LINE      CODE     ---       #9039
      01004181H   LINE      CODE     ---       #9040
      01004181H   LINE      CODE     ---       #9042
      01004181H   LINE      CODE     ---       #9044
      01004194H   LINE      CODE     ---       #9045
      01004194H   LINE      CODE     ---       #9047
      01004194H   LINE      CODE     ---       #9049
      010041A9H   LINE      CODE     ---       #9050
      010041A9H   LINE      CODE     ---       #9051
      010041D8H   LINE      CODE     ---       #9052
      010041D8H   LINE      CODE     ---       #9054
      0100420AH   LINE      CODE     ---       #9055
      0100422DH   LINE      CODE     ---       #9056
      ---         BLOCKEND  ---      ---       LVL=0

      0100755CH   BLOCK     CODE     ---       LVL=0
LX51 LINKER/LOCATER V4.41                                                             05/23/2018  09:43:07  PAGE 103


      02000779H   SYMBOL    XDATA    ---       msg
      0200077CH   SYMBOL    XDATA    ---       trace
      0100755CH   LINE      CODE     ---       #9059
      01007567H   LINE      CODE     ---       #9060
      01007567H   LINE      CODE     ---       #9061
      ---         BLOCKEND  ---      ---       LVL=0

      0100489FH   BLOCK     CODE     ---       LVL=0
      02000779H   SYMBOL    XDATA    ---       msg
      0200077CH   SYMBOL    XDATA    ---       trace
      0200077FH   SYMBOL    XDATA    INT       index
      010048AAH   BLOCK     CODE     NEAR LAB  LVL=1
      02000781H   SYMBOL    XDATA    WORD      node_id
      ---         BLOCKEND  ---      ---       LVL=1
      0100489FH   LINE      CODE     ---       #9066
      010048AAH   LINE      CODE     ---       #9067
      010048AAH   LINE      CODE     ---       #9068
      010048B2H   LINE      CODE     ---       #9071
      010048CAH   LINE      CODE     ---       #9073
      010048F6H   LINE      CODE     ---       #9074
      010048F6H   LINE      CODE     ---       #9075
      01004910H   LINE      CODE     ---       #9076
      01004929H   LINE      CODE     ---       #9077
      01004929H   LINE      CODE     ---       #9079
      01004929H   LINE      CODE     ---       #9080
      0100495BH   LINE      CODE     ---       #9081
      0100495BH   LINE      CODE     ---       #9082
      ---         BLOCKEND  ---      ---       LVL=0

      01003EAFH   BLOCK     CODE     ---       LVL=0
      02000771H   SYMBOL    XDATA    ---       msg
      02000774H   SYMBOL    XDATA    ---       trace
      01003EB2H   BLOCK     CODE     NEAR LAB  LVL=1
      02000777H   SYMBOL    XDATA    INT       index
      ---         BLOCKEND  ---      ---       LVL=1
      01003EAFH   LINE      CODE     ---       #9085
      01003EB2H   LINE      CODE     ---       #9086
      01003EB2H   LINE      CODE     ---       #9087
      01003EC7H   LINE      CODE     ---       #9089
      01003EE0H   LINE      CODE     ---       #9090
      01003EE0H   LINE      CODE     ---       #9092
      01003EE0H   LINE      CODE     ---       #9094
      01003EF3H   LINE      CODE     ---       #9095
      01003EF3H   LINE      CODE     ---       #9097
      01003EF3H   LINE      CODE     ---       #9099
      01003EFEH   LINE      CODE     ---       #9100
      01003EFEH   LINE      CODE     ---       #9101
      01003F2DH   LINE      CODE     ---       #9102
      01003F2DH   LINE      CODE     ---       #9105
      01003F49H   LINE      CODE     ---       #9107
      01003F72H   LINE      CODE     ---       #9108
      01003F95H   LINE      CODE     ---       #9109
      ---         BLOCKEND  ---      ---       LVL=0

      01007568H   BLOCK     CODE     ---       LVL=0
      02000777H   SYMBOL    XDATA    ---       reboot
      01007568H   LINE      CODE     ---       #9114
      01007573H   LINE      CODE     ---       #9115
      01007573H   LINE      CODE     ---       #9116
      ---         BLOCKEND  ---      ---       LVL=0

      01007026H   BLOCK     CODE     ---       LVL=0
      02000771H   SYMBOL    XDATA    ---       msg
      02000774H   SYMBOL    XDATA    ---       reboot
      01007026H   LINE      CODE     ---       #9121
LX51 LINKER/LOCATER V4.41                                                             05/23/2018  09:43:07  PAGE 104


      01007031H   LINE      CODE     ---       #9122
      01007031H   LINE      CODE     ---       #9123
      0100703DH   LINE      CODE     ---       #9124
      ---         BLOCKEND  ---      ---       LVL=0

      010053E0H   BLOCK     CODE     ---       LVL=0
      00000001H   SYMBOL    DATA     ---       ieee
      010053E0H   LINE      CODE     ---       #9128
      010053E0H   LINE      CODE     ---       #9129
      010053E0H   LINE      CODE     ---       #9131
      010053E0H   LINE      CODE     ---       #9132
      010053EDH   LINE      CODE     ---       #9133
      010053F5H   LINE      CODE     ---       #9134
      010053FDH   LINE      CODE     ---       #9135
      01005405H   LINE      CODE     ---       #9136
      0100540DH   LINE      CODE     ---       #9137
      01005415H   LINE      CODE     ---       #9138
      0100541DH   LINE      CODE     ---       #9139
      01005425H   LINE      CODE     ---       #9140
      0100542DH   LINE      CODE     ---       #9143
      01005438H   LINE      CODE     ---       #9144
      01005452H   LINE      CODE     ---       #9149
      01005455H   LINE      CODE     ---       #9150
      01005458H   LINE      CODE     ---       #9151
      ---         BLOCKEND  ---      ---       LVL=0

      01007574H   BLOCK     CODE     ---       LVL=0
      02000777H   SYMBOL    XDATA    ---       setieee
      01007574H   LINE      CODE     ---       #9158
      0100757FH   LINE      CODE     ---       #9159
      0100757FH   LINE      CODE     ---       #9160
      ---         BLOCKEND  ---      ---       LVL=0

      010069CCH   BLOCK     CODE     ---       LVL=0
      02000771H   SYMBOL    XDATA    ---       msg
      02000774H   SYMBOL    XDATA    ---       setieee
      010069CCH   LINE      CODE     ---       #9165
      010069D7H   LINE      CODE     ---       #9166
      010069D7H   LINE      CODE     ---       #9167
      010069E3H   LINE      CODE     ---       #9170
      010069F6H   LINE      CODE     ---       #9172
      ---         BLOCKEND  ---      ---       LVL=0

      01007580H   BLOCK     CODE     ---       LVL=0
      02000777H   SYMBOL    XDATA    ---       discovery
      01007580H   LINE      CODE     ---       #9178
      0100758BH   LINE      CODE     ---       #9179
      0100758BH   LINE      CODE     ---       #9180
      ---         BLOCKEND  ---      ---       LVL=0

      01006F79H   BLOCK     CODE     ---       LVL=0
      00000001H   SYMBOL    DATA     ---       msg
      02000774H   SYMBOL    XDATA    ---       discovery
      01006F79H   LINE      CODE     ---       #9187
      01006F79H   LINE      CODE     ---       #9188
      01006F79H   LINE      CODE     ---       #9189
      01006F84H   LINE      CODE     ---       #9190
      01006F92H   LINE      CODE     ---       #9193
      ---         BLOCKEND  ---      ---       LVL=0

      0100758CH   BLOCK     CODE     ---       LVL=0
      02000777H   SYMBOL    XDATA    ---       msg
      0200077AH   SYMBOL    XDATA    ---       status
      0100758CH   LINE      CODE     ---       #9197
      01007597H   LINE      CODE     ---       #9198
LX51 LINKER/LOCATER V4.41                                                             05/23/2018  09:43:07  PAGE 105


      01007597H   LINE      CODE     ---       #9199
      ---         BLOCKEND  ---      ---       LVL=0

      01006EA1H   BLOCK     CODE     ---       LVL=0
      00000001H   SYMBOL    DATA     ---       msg
      02000774H   SYMBOL    XDATA    ---       status
      01006EA1H   LINE      CODE     ---       #9204
      01006EA1H   LINE      CODE     ---       #9205
      01006EA1H   LINE      CODE     ---       #9206
      ---         BLOCKEND  ---      ---       LVL=0

      010035B7H   BLOCK     CODE     ---       LVL=0
      02000763H   SYMBOL    XDATA    ---       msg
      02000766H   SYMBOL    XDATA    ---       payload
      02000769H   SYMBOL    XDATA    BYTE      len
      010035BAH   BLOCK     CODE     NEAR LAB  LVL=1
      0200076AH   SYMBOL    XDATA    BYTE      __nesc_atomic
      010035C2H   BLOCK     CODE     NEAR LAB  LVL=2
      0200076BH   SYMBOL    XDATA    ---       anstd_header
      010036D9H   BLOCK     CODE     NEAR LAB  LVL=3
      0200076EH   SYMBOL    XDATA    ---       __nesc_temp
      ---         BLOCKEND  ---      ---       LVL=3
      ---         BLOCKEND  ---      ---       LVL=2
      ---         BLOCKEND  ---      ---       LVL=1
      010035B7H   LINE      CODE     ---       #9210
      010035BAH   LINE      CODE     ---       #9211
      010035BAH   LINE      CODE     ---       #9212
      010035C2H   LINE      CODE     ---       #9214
      010035D8H   LINE      CODE     ---       #9216
      010035FBH   LINE      CODE     ---       #9217
      010035FBH   LINE      CODE     ---       #9218
      010035FBH   LINE      CODE     ---       #9219
      0100361EH   LINE      CODE     ---       #9220
      01003621H   LINE      CODE     ---       #9222
      01003621H   LINE      CODE     ---       #9223
      01003644H   LINE      CODE     ---       #9224
      01003647H   LINE      CODE     ---       #9226
      01003647H   LINE      CODE     ---       #9227
      0100366AH   LINE      CODE     ---       #9228
      0100366CH   LINE      CODE     ---       #9230
      0100366CH   LINE      CODE     ---       #9231
      0100368FH   LINE      CODE     ---       #9232
      01003691H   LINE      CODE     ---       #9234
      01003691H   LINE      CODE     ---       #9235
      010036B4H   LINE      CODE     ---       #9236
      010036B6H   LINE      CODE     ---       #9238
      010036B6H   LINE      CODE     ---       #9239
      010036D9H   LINE      CODE     ---       #9240
      010036D9H   LINE      CODE     ---       #9241
      010036D9H   LINE      CODE     ---       #9243
      010036D9H   LINE      CODE     ---       #9244
      010036EEH   LINE      CODE     ---       #9250
      010036F6H   LINE      CODE     ---       #9252
      01003701H   LINE      CODE     ---       #9253
      01003701H   LINE      CODE     ---       #9254
      01003701H   LINE      CODE     ---       #9255
      01003701H   LINE      CODE     ---       #9257
      01003701H   LINE      CODE     ---       #9258
      ---         BLOCKEND  ---      ---       LVL=0

      01003B9CH   BLOCK     CODE     ---       LVL=0
      02000756H   SYMBOL    XDATA    ---       msg
      02000759H   SYMBOL    XDATA    ---       payload
      0200075CH   SYMBOL    XDATA    BYTE      len
      01003BB3H   BLOCK     CODE     NEAR LAB  LVL=1
LX51 LINKER/LOCATER V4.41                                                             05/23/2018  09:43:07  PAGE 106


      0200075DH   SYMBOL    XDATA    ---       header
      02000760H   SYMBOL    XDATA    ---       ack_header
      ---         BLOCKEND  ---      ---       LVL=1
      01003B9CH   LINE      CODE     ---       #9293
      01003BA7H   LINE      CODE     ---       #9294
      01003BA7H   LINE      CODE     ---       #9295
      01003BB3H   LINE      CODE     ---       #9296
      01003BB3H   LINE      CODE     ---       #9297
      01003BC4H   LINE      CODE     ---       #9298
      01003BE1H   LINE      CODE     ---       #9300
      01003BFCH   LINE      CODE     ---       #9301
      01003C01H   LINE      CODE     ---       #9307
      01003C12H   LINE      CODE     ---       #9308
      01003C12H   LINE      CODE     ---       #9309
      01003C3FH   LINE      CODE     ---       #9311
      01003C50H   LINE      CODE     ---       #9313
      01003C63H   LINE      CODE     ---       #9315
      01003C68H   LINE      CODE     ---       #9316
      01003C68H   LINE      CODE     ---       #9319
      01003C77H   LINE      CODE     ---       #9320
      01003C77H   LINE      CODE     ---       #9321
      01003C79H   LINE      CODE     ---       #9322
      01003C79H   LINE      CODE     ---       #9324
      01003CA4H   LINE      CODE     ---       #9325
      01003CA4H   LINE      CODE     ---       #9328
      01003CAFH   LINE      CODE     ---       #9329
      ---         BLOCKEND  ---      ---       LVL=0

      01007598H   BLOCK     CODE     ---       LVL=0
      02000772H   SYMBOL    XDATA    ---       send_msg
      02000775H   SYMBOL    XDATA    ---       ack_msg
      02000778H   SYMBOL    XDATA    ---       ack
      01007598H   LINE      CODE     ---       #9332
      010075A3H   LINE      CODE     ---       #9333
      010075A3H   LINE      CODE     ---       #9334
      ---         BLOCKEND  ---      ---       LVL=0

      010062F4H   BLOCK     CODE     ---       LVL=0
      ---         BLOCKEND  ---      ---       LVL=0

      010062FCH   BLOCK     CODE     ---       LVL=0
      00000001H   SYMBOL    DATA     ---       send_msg
      0200076CH   SYMBOL    XDATA    ---       ack_msg
      0200076FH   SYMBOL    XDATA    ---       ack
      010062FCH   LINE      CODE     ---       #9339
      010062FCH   LINE      CODE     ---       #9340
      010062FCH   LINE      CODE     ---       #9341
      ---         BLOCKEND  ---      ---       LVL=0

      01002F0EH   BLOCK     CODE     ---       LVL=0
      02000756H   SYMBOL    XDATA    ---       ack_msg
      02000759H   SYMBOL    XDATA    ---       payload
      0200075CH   SYMBOL    XDATA    BYTE      len
      01002F22H   BLOCK     CODE     NEAR LAB  LVL=1
      0200075DH   SYMBOL    XDATA    ---       meta_data
      02000760H   SYMBOL    XDATA    ---       header
      02000763H   SYMBOL    XDATA    ---       ack_header
      01002FD9H   BLOCK     CODE     NEAR LAB  LVL=2
      02000766H   SYMBOL    XDATA    ---       ack_meta_data
      ---         BLOCKEND  ---      ---       LVL=2
      ---         BLOCKEND  ---      ---       LVL=1
      01002F0EH   LINE      CODE     ---       #9351
      01002F19H   LINE      CODE     ---       #9352
      01002F19H   LINE      CODE     ---       #9353
      01002F22H   LINE      CODE     ---       #9354
LX51 LINKER/LOCATER V4.41                                                             05/23/2018  09:43:07  PAGE 107


      01002F22H   LINE      CODE     ---       #9355
      01002F3DH   LINE      CODE     ---       #9356
      01002F4EH   LINE      CODE     ---       #9358
      01002F63H   LINE      CODE     ---       #9368
      01002FD9H   LINE      CODE     ---       #9372
      01002FD9H   LINE      CODE     ---       #9373
      01002FF4H   LINE      CODE     ---       #9376
      01003007H   LINE      CODE     ---       #9377
      0100301CH   LINE      CODE     ---       #9378
      01003040H   LINE      CODE     ---       #9379
      01003055H   LINE      CODE     ---       #9382
      0100307BH   LINE      CODE     ---       #9385
      010030ABH   LINE      CODE     ---       #9388
      010030BBH   LINE      CODE     ---       #9389
      010030BBH   LINE      CODE     ---       #9390
      010030BBH   LINE      CODE     ---       #9392
      010030C6H   LINE      CODE     ---       #9393
      ---         BLOCKEND  ---      ---       LVL=0

      010030C7H   BLOCK     CODE     ---       LVL=0
      02000756H   SYMBOL    XDATA    ---       ack_msg
      02000759H   SYMBOL    XDATA    ---       payload
      0200075CH   SYMBOL    XDATA    BYTE      len
      010030DBH   BLOCK     CODE     NEAR LAB  LVL=1
      0200075DH   SYMBOL    XDATA    ---       meta_data
      02000760H   SYMBOL    XDATA    ---       header
      02000763H   SYMBOL    XDATA    ---       ack_header
      01003192H   BLOCK     CODE     NEAR LAB  LVL=2
      02000766H   SYMBOL    XDATA    ---       ack_meta_data
      ---         BLOCKEND  ---      ---       LVL=2
      ---         BLOCKEND  ---      ---       LVL=1
      010030C7H   LINE      CODE     ---       #9402
      010030D2H   LINE      CODE     ---       #9403
      010030D2H   LINE      CODE     ---       #9404
      010030DBH   LINE      CODE     ---       #9405
      010030DBH   LINE      CODE     ---       #9406
      010030F6H   LINE      CODE     ---       #9407
      01003107H   LINE      CODE     ---       #9409
      0100311CH   LINE      CODE     ---       #9419
      01003192H   LINE      CODE     ---       #9423
      01003192H   LINE      CODE     ---       #9424
      010031ADH   LINE      CODE     ---       #9427
      010031C0H   LINE      CODE     ---       #9428
      010031D5H   LINE      CODE     ---       #9429
      010031F9H   LINE      CODE     ---       #9430
      0100320EH   LINE      CODE     ---       #9433
      01003234H   LINE      CODE     ---       #9436
      01003264H   LINE      CODE     ---       #9439
      01003274H   LINE      CODE     ---       #9440
      01003274H   LINE      CODE     ---       #9441
      01003274H   LINE      CODE     ---       #9443
      0100327FH   LINE      CODE     ---       #9444
      ---         BLOCKEND  ---      ---       LVL=0

      01007496H   BLOCK     CODE     ---       LVL=0
      02000756H   SYMBOL    XDATA    BYTE      id
      02000757H   SYMBOL    XDATA    ---       msg
      0200075AH   SYMBOL    XDATA    ---       payload
      0200075DH   SYMBOL    XDATA    BYTE      len
      01007496H   LINE      CODE     ---       #9447
      010074A4H   LINE      CODE     ---       #9448
      010074A4H   LINE      CODE     ---       #9449
      ---         BLOCKEND  ---      ---       LVL=0

      01003845H   BLOCK     CODE     ---       LVL=0
LX51 LINKER/LOCATER V4.41                                                             05/23/2018  09:43:07  PAGE 108


      0200074BH   SYMBOL    XDATA    BYTE      arg_0x7e3983f8
      0200074CH   SYMBOL    XDATA    ---       arg_0x7eb51ca0
      0200074FH   SYMBOL    XDATA    ---       arg_0x7eb51e40
      02000752H   SYMBOL    XDATA    BYTE      arg_0x7eb50010
      01003855H   BLOCK     CODE     NEAR LAB  LVL=1
      02000753H   SYMBOL    XDATA    ---       result
      ---         BLOCKEND  ---      ---       LVL=1
      01003845H   LINE      CODE     ---       #9452
      01003855H   LINE      CODE     ---       #9458
      0100386AH   LINE      CODE     ---       #9460
      0100386AH   LINE      CODE     ---       #9462
      01003895H   LINE      CODE     ---       #9464
      01003898H   LINE      CODE     ---       #9466
      01003898H   LINE      CODE     ---       #9468
      010038C3H   LINE      CODE     ---       #9470
      010038C6H   LINE      CODE     ---       #9472
      010038C6H   LINE      CODE     ---       #9474
      010038F1H   LINE      CODE     ---       #9476
      010038F3H   LINE      CODE     ---       #9478
      010038F3H   LINE      CODE     ---       #9480
      0100391EH   LINE      CODE     ---       #9482
      01003920H   LINE      CODE     ---       #9484
      01003920H   LINE      CODE     ---       #9486
      0100395BH   LINE      CODE     ---       #9488
      0100395BH   LINE      CODE     ---       #9490
      0100395BH   LINE      CODE     ---       #9494
      01003966H   LINE      CODE     ---       #9496
      ---         BLOCKEND  ---      ---       LVL=0

      010068D9H   BLOCK     CODE     ---       LVL=0
      0200074BH   SYMBOL    XDATA    ---       amsg
      010068D9H   LINE      CODE     ---       #9499
      010068E4H   LINE      CODE     ---       #9500
      010068E4H   LINE      CODE     ---       #9502
      01006909H   LINE      CODE     ---       #9503
      ---         BLOCKEND  ---      ---       LVL=0

      010075DDH   BLOCK     CODE     ---       LVL=0
      00000001H   SYMBOL    DATA     ---       amsg
      010075DDH   LINE      CODE     ---       #9510
      010075DDH   LINE      CODE     ---       #9511
      010075DDH   LINE      CODE     ---       #9512
      010075E7H   LINE      CODE     ---       #9513
      ---         BLOCKEND  ---      ---       LVL=0

      0100775AH   BLOCK     CODE     ---       LVL=0
      0100775AH   LINE      CODE     ---       #9518
      0100775AH   LINE      CODE     ---       #9519
      0100775AH   LINE      CODE     ---       #9520
      0100775CH   LINE      CODE     ---       #9521
      ---         BLOCKEND  ---      ---       LVL=0

      01007092H   BLOCK     CODE     ---       LVL=0
      ---         BLOCKEND  ---      ---       LVL=0

      0100709AH   BLOCK     CODE     ---       LVL=0
      00000001H   SYMBOL    DATA     ---       msg
      0100709AH   LINE      CODE     ---       #9528
      0100709AH   LINE      CODE     ---       #9529
      0100709AH   LINE      CODE     ---       #9530
      010070ABH   LINE      CODE     ---       #9531
      ---         BLOCKEND  ---      ---       LVL=0

      01004A16H   BLOCK     CODE     ---       LVL=0
      02000743H   SYMBOL    XDATA    ---       msg
LX51 LINKER/LOCATER V4.41                                                             05/23/2018  09:43:07  PAGE 109


      01004A2DH   BLOCK     CODE     NEAR LAB  LVL=1
      02000746H   SYMBOL    XDATA    BYTE      type
      02000747H   SYMBOL    XDATA    BYTE      len
      02000748H   SYMBOL    XDATA    ---       payload
      ---         BLOCKEND  ---      ---       LVL=1
      01004A16H   LINE      CODE     ---       #9536
      01004A21H   LINE      CODE     ---       #9537
      01004A21H   LINE      CODE     ---       #9538
      01004A2DH   LINE      CODE     ---       #9539
      01004A2DH   LINE      CODE     ---       #9540
      01004A40H   LINE      CODE     ---       #9542
      01004A5FH   LINE      CODE     ---       #9545
      01004A73H   LINE      CODE     ---       #9546
      01004A73H   LINE      CODE     ---       #9547
      01004AA0H   LINE      CODE     ---       #9548
      01004AA0H   LINE      CODE     ---       #9550
      01004AA0H   LINE      CODE     ---       #9551
      01004ACDH   LINE      CODE     ---       #9552
      01004ACDH   LINE      CODE     ---       #9553
      01004ACDH   LINE      CODE     ---       #9554
      ---         BLOCKEND  ---      ---       LVL=0

      01003DBEH   BLOCK     CODE     ---       LVL=0
      02000737H   SYMBOL    XDATA    ---       buf
      00000004H   SYMBOL    DATA     BYTE      len
      01003DCBH   BLOCK     CODE     NEAR LAB  LVL=1
      0200073AH   SYMBOL    XDATA    ---       __nesc_temp48
      0200073DH   SYMBOL    XDATA    ---       msg
      00000007H   SYMBOL    DATA     BYTE      frame_type
      01003DEEH   BLOCK     CODE     NEAR LAB  LVL=2
      02000740H   SYMBOL    XDATA    ---       meta_data
      ---         BLOCKEND  ---      ---       LVL=2
      ---         BLOCKEND  ---      ---       LVL=1
      01003DBEH   LINE      CODE     ---       #9559
      01003DCBH   LINE      CODE     ---       #9560
      01003DCBH   LINE      CODE     ---       #9563
      01003DD6H   LINE      CODE     ---       #9566
      01003DDFH   LINE      CODE     ---       #9568
      01003DE6H   LINE      CODE     ---       #9569
      01003DE6H   LINE      CODE     ---       #9570
      01003DE6H   LINE      CODE     ---       #9571
      01003DE6H   LINE      CODE     ---       #9573
      01003DEEH   LINE      CODE     ---       #9574
      01003DEEH   LINE      CODE     ---       #9577
      01003E07H   LINE      CODE     ---       #9580
      01003E3EH   LINE      CODE     ---       #9581
      01003E67H   LINE      CODE     ---       #9582
      01003E7FH   LINE      CODE     ---       #9585
      01003EA0H   LINE      CODE     ---       #9587
      01003EAEH   LINE      CODE     ---       #9588
      01003EAEH   LINE      CODE     ---       #9589
      01003EAEH   LINE      CODE     ---       #9590
      ---         BLOCKEND  ---      ---       LVL=0

      01005549H   BLOCK     CODE     ---       LVL=0
      01005549H   LINE      CODE     ---       #9595
      01005549H   LINE      CODE     ---       #9596
      01005549H   LINE      CODE     ---       #9597
      01005557H   LINE      CODE     ---       #9600
      01005557H   LINE      CODE     ---       #9602
      01005561H   LINE      CODE     ---       #9603
      01005561H   LINE      CODE     ---       #9606
      01005561H   LINE      CODE     ---       #9608
      01005561H   LINE      CODE     ---       #9610
      01005564H   LINE      CODE     ---       #9612
LX51 LINKER/LOCATER V4.41                                                             05/23/2018  09:43:07  PAGE 110


      01005567H   LINE      CODE     ---       #9613
      01005567H   LINE      CODE     ---       #9614
      01005567H   LINE      CODE     ---       #9618
      01005567H   LINE      CODE     ---       #9620
      0100556AH   LINE      CODE     ---       #9622
      0100556DH   LINE      CODE     ---       #9623
      0100556DH   LINE      CODE     ---       #9624
      0100556DH   LINE      CODE     ---       #9627
      0100556DH   LINE      CODE     ---       #9630
      0100556DH   LINE      CODE     ---       #9632
      01005575H   LINE      CODE     ---       #9633
      01005575H   LINE      CODE     ---       #9636
      01005575H   LINE      CODE     ---       #9637
      0100557CH   LINE      CODE     ---       #9640
      0100558AH   LINE      CODE     ---       #9643
      0100558AH   LINE      CODE     ---       #9645
      0100559CH   LINE      CODE     ---       #9646
      0100559CH   LINE      CODE     ---       #9648
      010055A8H   LINE      CODE     ---       #9649
      010055A8H   LINE      CODE     ---       #9651
      010055A8H   LINE      CODE     ---       #9653
      010055A8H   LINE      CODE     ---       #9655
      010055A8H   LINE      CODE     ---       #9657
      010055ABH   LINE      CODE     ---       #9659
      010055AEH   LINE      CODE     ---       #9660
      010055AEH   LINE      CODE     ---       #9661
      010055AEH   LINE      CODE     ---       #9665
      010055AEH   LINE      CODE     ---       #9667
      010055B1H   LINE      CODE     ---       #9669
      010055B4H   LINE      CODE     ---       #9670
      010055B4H   LINE      CODE     ---       #9671
      010055B4H   LINE      CODE     ---       #9674
      010055B4H   LINE      CODE     ---       #9677
      010055B4H   LINE      CODE     ---       #9679
      010055BCH   LINE      CODE     ---       #9680
      010055BCH   LINE      CODE     ---       #9683
      010055BCH   LINE      CODE     ---       #9684
      ---         BLOCKEND  ---      ---       LVL=0

      01006C51H   BLOCK     CODE     ---       LVL=0
      01006C66H   BLOCK     CODE     NEAR LAB  LVL=1
      02000736H   SYMBOL    XDATA    BYTE      __nesc_atomic
      ---         BLOCKEND  ---      ---       LVL=1
      01006C51H   LINE      CODE     ---       #9686
      01006C51H   LINE      CODE     ---       #9687
      01006C51H   LINE      CODE     ---       #9688
      01006C54H   LINE      CODE     ---       #9690
      01006C66H   LINE      CODE     ---       #9691
      01006C66H   LINE      CODE     ---       #9692
      01006C66H   LINE      CODE     ---       #9694
      01006C6EH   LINE      CODE     ---       #9698
      01006C74H   LINE      CODE     ---       #9699
      01006C74H   LINE      CODE     ---       #9701
      01006C77H   LINE      CODE     ---       #9702
      01006C77H   LINE      CODE     ---       #9705
      01006C77H   LINE      CODE     ---       #9706
      ---         BLOCKEND  ---      ---       LVL=0

      01007705H   BLOCK     CODE     ---       LVL=0
      02000736H   SYMBOL    XDATA    BYTE      n
      01007705H   LINE      CODE     ---       #9709
      0100770AH   LINE      CODE     ---       #9710
      0100770AH   LINE      CODE     ---       #9711
      ---         BLOCKEND  ---      ---       LVL=0

LX51 LINKER/LOCATER V4.41                                                             05/23/2018  09:43:07  PAGE 111


      01006C78H   BLOCK     CODE     ---       LVL=0
      02000735H   SYMBOL    XDATA    BYTE      arg_0x7ebb1360
      01006C78H   LINE      CODE     ---       #9714
      01006C7DH   LINE      CODE     ---       #9716
      01006C8AH   LINE      CODE     ---       #9718
      01006C8AH   LINE      CODE     ---       #9720
      01006C8DH   LINE      CODE     ---       #9722
      01006C8DH   LINE      CODE     ---       #9724
      01006C8DH   LINE      CODE     ---       #9726
      01006C90H   LINE      CODE     ---       #9728
      01006C90H   LINE      CODE     ---       #9730
      01006C90H   LINE      CODE     ---       #9732
      01006C93H   LINE      CODE     ---       #9734
      01006C93H   LINE      CODE     ---       #9736
      01006C93H   LINE      CODE     ---       #9738
      01006C96H   LINE      CODE     ---       #9740
      01006C96H   LINE      CODE     ---       #9742
      01006C96H   LINE      CODE     ---       #9744
      01006C9EH   LINE      CODE     ---       #9746
      01006C9EH   LINE      CODE     ---       #9748
      01006C9EH   LINE      CODE     ---       #9750
      ---         BLOCKEND  ---      ---       LVL=0

      0100645DH   BLOCK     CODE     ---       LVL=0
      0100645DH   BLOCK     CODE     NEAR LAB  LVL=1
      02000734H   SYMBOL    XDATA    BYTE      i
      ---         BLOCKEND  ---      ---       LVL=1
      0100645DH   LINE      CODE     ---       #9753
      0100645DH   LINE      CODE     ---       #9754
      0100645DH   LINE      CODE     ---       #9757
      0100646CH   LINE      CODE     ---       #9758
      0100646CH   LINE      CODE     ---       #9759
      01006479H   LINE      CODE     ---       #9760
      01006479H   LINE      CODE     ---       #9761
      0100647BH   LINE      CODE     ---       #9762
      0100648AH   LINE      CODE     ---       #9763
      0100648CH   LINE      CODE     ---       #9765
      0100648FH   LINE      CODE     ---       #9766
      0100648FH   LINE      CODE     ---       #9767
      01006497H   LINE      CODE     ---       #9768
      ---         BLOCKEND  ---      ---       LVL=0

      01007242H   BLOCK     CODE     ---       LVL=0
      01007242H   LINE      CODE     ---       #9773
      01007242H   LINE      CODE     ---       #9774
      01007242H   LINE      CODE     ---       #9775
      0100724BH   LINE      CODE     ---       #9776
      0100724BH   LINE      CODE     ---       #9777
      0100724BH   LINE      CODE     ---       #9779
      0100724BH   LINE      CODE     ---       #9781
      0100724EH   LINE      CODE     ---       #9783
      01007251H   LINE      CODE     ---       #9784
      01007251H   LINE      CODE     ---       #9785
      01007251H   LINE      CODE     ---       #9789
      01007251H   LINE      CODE     ---       #9791
      01007254H   LINE      CODE     ---       #9793
      01007257H   LINE      CODE     ---       #9794
      01007257H   LINE      CODE     ---       #9795
      01007257H   LINE      CODE     ---       #9798
      01007257H   LINE      CODE     ---       #9801
      01007257H   LINE      CODE     ---       #9802
      ---         BLOCKEND  ---      ---       LVL=0

      01005E5FH   BLOCK     CODE     ---       LVL=0
      01005E6FH   BLOCK     CODE     NEAR LAB  LVL=1
LX51 LINKER/LOCATER V4.41                                                             05/23/2018  09:43:07  PAGE 112


      02000734H   SYMBOL    XDATA    BYTE      id
      ---         BLOCKEND  ---      ---       LVL=1
      01005E5FH   LINE      CODE     ---       #9807
      01005E5FH   LINE      CODE     ---       #9808
      01005E5FH   LINE      CODE     ---       #9810
      01005E6CH   LINE      CODE     ---       #9811
      01005E6CH   LINE      CODE     ---       #9812
      01005E6FH   LINE      CODE     ---       #9813
      01005E6FH   LINE      CODE     ---       #9815
      01005E6FH   LINE      CODE     ---       #9816
      01005E7FH   LINE      CODE     ---       #9818
      01005E8CH   LINE      CODE     ---       #9820
      01005E9FH   LINE      CODE     ---       #9821
      01005EA6H   LINE      CODE     ---       #9822
      01005EA6H   LINE      CODE     ---       #9823
      ---         BLOCKEND  ---      ---       LVL=0

      010061EAH   BLOCK     CODE     ---       LVL=0
      010061EAH   BLOCK     CODE     NEAR LAB  LVL=1
      02000732H   SYMBOL    XDATA    BYTE      nextTask
      010061EAH   BLOCK     CODE     NEAR LAB  LVL=2
      02000733H   SYMBOL    XDATA    BYTE      __nesc_atomic
      ---         BLOCKEND  ---      ---       LVL=2
      ---         BLOCKEND  ---      ---       LVL=1
      010061EAH   LINE      CODE     ---       #9826
      010061EAH   LINE      CODE     ---       #9827
      010061EAH   LINE      CODE     ---       #9828
      010061EAH   LINE      CODE     ---       #9829
      010061EAH   LINE      CODE     ---       #9830
      010061EAH   LINE      CODE     ---       #9832
      010061F2H   LINE      CODE     ---       #9834
      010061FAH   LINE      CODE     ---       #9835
      010061FAH   LINE      CODE     ---       #9837
      01006200H   LINE      CODE     ---       #9839
      01006208H   LINE      CODE     ---       #9842
      0100620BH   LINE      CODE     ---       #9844
      01006211H   LINE      CODE     ---       #9845
      01006211H   LINE      CODE     ---       #9846
      01006214H   LINE      CODE     ---       #9847
      01006216H   LINE      CODE     ---       #9849
      0100621EH   LINE      CODE     ---       #9850
      0100621EH   LINE      CODE     ---       #9851
      01006221H   LINE      CODE     ---       #9852
      01006223H   LINE      CODE     ---       #9854
      01006223H   LINE      CODE     ---       #9855
      01006229H   LINE      CODE     ---       #9856
      01006229H   LINE      CODE     ---       #9857
      0100622CH   LINE      CODE     ---       #9858
      0100622CH   LINE      CODE     ---       #9859
      0100622CH   LINE      CODE     ---       #9860
      ---         BLOCKEND  ---      ---       LVL=0

      0100775DH   BLOCK     CODE     ---       LVL=0
      0100775DH   LINE      CODE     ---       #9868
      0100775DH   LINE      CODE     ---       #9869
      0100775DH   LINE      CODE     ---       #9870
      0100775FH   LINE      CODE     ---       #9871
      ---         BLOCKEND  ---      ---       LVL=0

      0100650AH   BLOCK     CODE     ---       LVL=0
      0200076FH   SYMBOL    XDATA    ---       receive_msg
      02000772H   SYMBOL    XDATA    BYTE      receive_dsn
      02000773H   SYMBOL    XDATA    ---       ack_msg
      02000776H   SYMBOL    XDATA    ---       ack
      0100650AH   LINE      CODE     ---       #9874
LX51 LINKER/LOCATER V4.41                                                             05/23/2018  09:43:07  PAGE 113


      01006518H   LINE      CODE     ---       #9875
      01006518H   LINE      CODE     ---       #9876
      0100652CH   LINE      CODE     ---       #9879
      0100653FH   LINE      CODE     ---       #9881
      01006541H   LINE      CODE     ---       #9882
      ---         BLOCKEND  ---      ---       LVL=0

      010073ABH   BLOCK     CODE     ---       LVL=0
      0200076FH   SYMBOL    XDATA    ---       receive_msg
      02000772H   SYMBOL    XDATA    BYTE      receive_dsn
      02000773H   SYMBOL    XDATA    ---       ack_msg
      02000776H   SYMBOL    XDATA    ---       ack
      010073ABH   LINE      CODE     ---       #9885
      010073B9H   LINE      CODE     ---       #9886
      010073B9H   LINE      CODE     ---       #9887
      010073BBH   LINE      CODE     ---       #9888
      ---         BLOCKEND  ---      ---       LVL=0

      01005EEEH   BLOCK     CODE     ---       LVL=0
      00000006H   SYMBOL    DATA     WORD      addr
      01005EEEH   BLOCK     CODE     NEAR LAB  LVL=1
      0200076AH   SYMBOL    XDATA    BYTE      i
      01005F14H   BLOCK     CODE     NEAR LAB  LVL=2
      0200076BH   SYMBOL    XDATA    INT       __nesc_temp
      ---         BLOCKEND  ---      ---       LVL=2
      01005F2AH   BLOCK     CODE     NEAR LAB  LVL=2
      0200076BH   SYMBOL    XDATA    INT       __nesc_temp
      ---         BLOCKEND  ---      ---       LVL=2
      ---         BLOCKEND  ---      ---       LVL=1
      01005EEEH   LINE      CODE     ---       #9893
      01005EEEH   LINE      CODE     ---       #9894
      01005EEEH   LINE      CODE     ---       #9896
      01005EEEH   LINE      CODE     ---       #9900
      01005EFDH   LINE      CODE     ---       #9901
      01005EFDH   LINE      CODE     ---       #9902
      01005F14H   LINE      CODE     ---       #9903
      01005F14H   LINE      CODE     ---       #9904
      01005F14H   LINE      CODE     ---       #9905
      01005F21H   LINE      CODE     ---       #9910
      01005F22H   LINE      CODE     ---       #9911
      01005F22H   LINE      CODE     ---       #9912
      01005F22H   LINE      CODE     ---       #9913
      01005F2AH   LINE      CODE     ---       #9914
      01005F2AH   LINE      CODE     ---       #9915
      01005F32H   LINE      CODE     ---       #9920
      01005F34H   LINE      CODE     ---       #9921
      01005F34H   LINE      CODE     ---       #9922
      01005F34H   LINE      CODE     ---       #9923
      ---         BLOCKEND  ---      ---       LVL=0

      010059B9H   BLOCK     CODE     ---       LVL=0
      010059B9H   BLOCK     CODE     NEAR LAB  LVL=1
      0200076AH   SYMBOL    XDATA    BYTE      i
      010059DBH   BLOCK     CODE     NEAR LAB  LVL=2
      0200076BH   SYMBOL    XDATA    INT       __nesc_temp
      ---         BLOCKEND  ---      ---       LVL=2
      01005A06H   BLOCK     CODE     NEAR LAB  LVL=2
      0200076BH   SYMBOL    XDATA    INT       __nesc_temp
      ---         BLOCKEND  ---      ---       LVL=2
      ---         BLOCKEND  ---      ---       LVL=1
      010059B9H   LINE      CODE     ---       #9926
      010059B9H   LINE      CODE     ---       #9927
      010059B9H   LINE      CODE     ---       #9929
      010059B9H   LINE      CODE     ---       #9933
      010059C8H   LINE      CODE     ---       #9934
LX51 LINKER/LOCATER V4.41                                                             05/23/2018  09:43:07  PAGE 114


      010059C8H   LINE      CODE     ---       #9935
      010059DBH   LINE      CODE     ---       #9936
      010059DBH   LINE      CODE     ---       #9937
      010059DBH   LINE      CODE     ---       #9938
      010059E1H   LINE      CODE     ---       #9943
      010059E3H   LINE      CODE     ---       #9944
      010059E3H   LINE      CODE     ---       #9945
      010059E3H   LINE      CODE     ---       #9946
      010059EBH   LINE      CODE     ---       #9947
      010059F4H   LINE      CODE     ---       #9948
      01005A06H   LINE      CODE     ---       #9950
      01005A06H   LINE      CODE     ---       #9951
      01005A12H   LINE      CODE     ---       #9956
      01005A12H   LINE      CODE     ---       #9957
      01005A12H   LINE      CODE     ---       #9958
      01005A12H   LINE      CODE     ---       #9959
      ---         BLOCKEND  ---      ---       LVL=0

      01007507H   BLOCK     CODE     ---       LVL=0
      01007507H   LINE      CODE     ---       #9962
      01007507H   LINE      CODE     ---       #9963
      01007507H   LINE      CODE     ---       #9964
      01007507H   LINE      CODE     ---       #9966
      01007507H   LINE      CODE     ---       #9968
      0100750AH   LINE      CODE     ---       #9970
      0100750DH   LINE      CODE     ---       #9971
      0100750DH   LINE      CODE     ---       #9972
      0100750DH   LINE      CODE     ---       #9976
      0100750DH   LINE      CODE     ---       #9978
      01007510H   LINE      CODE     ---       #9980
      01007513H   LINE      CODE     ---       #9981
      01007513H   LINE      CODE     ---       #9982
      01007513H   LINE      CODE     ---       #9985
      01007513H   LINE      CODE     ---       #9988
      ---         BLOCKEND  ---      ---       LVL=0

      010072E7H   BLOCK     CODE     ---       LVL=0
      010072E7H   LINE      CODE     ---       #9993
      010072E7H   LINE      CODE     ---       #9994
      010072E7H   LINE      CODE     ---       #9997
      010072F3H   LINE      CODE     ---       #9998
      010072F3H   LINE      CODE     ---       #9999
      010072F6H   LINE      CODE     ---       #10000
      010072F9H   LINE      CODE     ---       #10001
      010072F9H   LINE      CODE     ---       #10002
      ---         BLOCKEND  ---      ---       LVL=0

      010063AAH   BLOCK     CODE     ---       LVL=0
      010063AAH   LINE      CODE     ---       #10007
      010063AAH   LINE      CODE     ---       #10008
      010063AAH   LINE      CODE     ---       #10011
      010063B4H   LINE      CODE     ---       #10012
      010063B4H   LINE      CODE     ---       #10013
      010063BAH   LINE      CODE     ---       #10014
      010063BAH   LINE      CODE     ---       #10015
      010063BAH   LINE      CODE     ---       #10017
      010063BAH   LINE      CODE     ---       #10019
      010063BDH   LINE      CODE     ---       #10021
      010063C0H   LINE      CODE     ---       #10022
      010063C0H   LINE      CODE     ---       #10023
      010063C0H   LINE      CODE     ---       #10027
      010063C0H   LINE      CODE     ---       #10029
      010063C3H   LINE      CODE     ---       #10031
      010063C6H   LINE      CODE     ---       #10032
      010063C6H   LINE      CODE     ---       #10033
LX51 LINKER/LOCATER V4.41                                                             05/23/2018  09:43:07  PAGE 115


      010063C6H   LINE      CODE     ---       #10036
      010063C6H   LINE      CODE     ---       #10039
      010063C6H   LINE      CODE     ---       #10041
      010063C6H   LINE      CODE     ---       #10042
      010063C6H   LINE      CODE     ---       #10043
      010063C6H   LINE      CODE     ---       #10046
      010063C6H   LINE      CODE     ---       #10048
      010063D7H   LINE      CODE     ---       #10050
      010063DDH   LINE      CODE     ---       #10051
      010063DDH   LINE      CODE     ---       #10054
      010063DFH   LINE      CODE     ---       #10057
      010063DFH   LINE      CODE     ---       #10059
      010063E5H   LINE      CODE     ---       #10060
      010063E5H   LINE      CODE     ---       #10063
      ---         BLOCKEND  ---      ---       LVL=0

      0100611BH   BLOCK     CODE     ---       LVL=0
      0100611BH   LINE      CODE     ---       #10068
      0100611BH   LINE      CODE     ---       #10069
      0100611BH   LINE      CODE     ---       #10072
      01006128H   LINE      CODE     ---       #10073
      01006128H   LINE      CODE     ---       #10080
      0100612BH   LINE      CODE     ---       #10081
      0100612DH   LINE      CODE     ---       #10082
      0100612DH   LINE      CODE     ---       #10083
      01006134H   LINE      CODE     ---       #10084
      01006134H   LINE      CODE     ---       #10086
      01006137H   LINE      CODE     ---       #10087
      01006139H   LINE      CODE     ---       #10088
      01006139H   LINE      CODE     ---       #10089
      01006146H   LINE      CODE     ---       #10090
      01006146H   LINE      CODE     ---       #10092
      0100614AH   LINE      CODE     ---       #10093
      0100614AH   LINE      CODE     ---       #10094
      0100614AH   LINE      CODE     ---       #10095
      0100614AH   LINE      CODE     ---       #10099
      01006156H   LINE      CODE     ---       #10100
      01006156H   LINE      CODE     ---       #10105
      01006159H   LINE      CODE     ---       #10107
      0100615CH   LINE      CODE     ---       #10108
      0100615CH   LINE      CODE     ---       #10112
      0100615FH   LINE      CODE     ---       #10113
      ---         BLOCKEND  ---      ---       LVL=0

      0100768EH   BLOCK     CODE     ---       LVL=0
      020007EDH   SYMBOL    XDATA    WORD      time
      0100768EH   LINE      CODE     ---       #10118
      01007696H   LINE      CODE     ---       #10120
      01007696H   LINE      CODE     ---       #10121
      ---         BLOCKEND  ---      ---       LVL=0

      01003F96H   BLOCK     CODE     ---       LVL=0
      01003F96H   BLOCK     CODE     NEAR LAB  LVL=1
      020007EAH   SYMBOL    XDATA    BYTE      __nesc_atomic
      01003FE6H   BLOCK     CODE     NEAR LAB  LVL=2
      020007EBH   SYMBOL    XDATA    WORD      value
      ---         BLOCKEND  ---      ---       LVL=2
      ---         BLOCKEND  ---      ---       LVL=1
      01003F96H   LINE      CODE     ---       #10126
      01003F96H   LINE      CODE     ---       #10127
      01003F96H   LINE      CODE     ---       #10128
      01003F9EH   LINE      CODE     ---       #10130
      01003FAAH   LINE      CODE     ---       #10131
      01003FAAH   LINE      CODE     ---       #10132
      01003FADH   LINE      CODE     ---       #10133
LX51 LINKER/LOCATER V4.41                                                             05/23/2018  09:43:07  PAGE 116


      01003FB0H   LINE      CODE     ---       #10136
      01003FB7H   LINE      CODE     ---       #10137
      01003FB7H   LINE      CODE     ---       #10139
      01003FBDH   LINE      CODE     ---       #10140
      01003FBDH   LINE      CODE     ---       #10143
      01003FBDH   LINE      CODE     ---       #10145
      01003FC9H   LINE      CODE     ---       #10146
      01003FC9H   LINE      CODE     ---       #10147
      01003FCCH   LINE      CODE     ---       #10148
      01003FCFH   LINE      CODE     ---       #10151
      01003FD6H   LINE      CODE     ---       #10152
      01003FD6H   LINE      CODE     ---       #10154
      01003FDCH   LINE      CODE     ---       #10155
      01003FDCH   LINE      CODE     ---       #10158
      01003FDCH   LINE      CODE     ---       #10160
      01003FE6H   LINE      CODE     ---       #10161
      01003FE6H   LINE      CODE     ---       #10164
      01003FE9H   LINE      CODE     ---       #10166
      01003FEEH   LINE      CODE     ---       #10167
      01003FEEH   LINE      CODE     ---       #10168
      01003FF8H   LINE      CODE     ---       #10169
      01004006H   LINE      CODE     ---       #10171
      0100400EH   LINE      CODE     ---       #10172
      01004010H   LINE      CODE     ---       #10174
      01004010H   LINE      CODE     ---       #10175
      01004013H   LINE      CODE     ---       #10178
      0100401AH   LINE      CODE     ---       #10179
      0100401AH   LINE      CODE     ---       #10181
      01004020H   LINE      CODE     ---       #10182
      01004020H   LINE      CODE     ---       #10185
      01004020H   LINE      CODE     ---       #10186
      01004020H   LINE      CODE     ---       #10188
      0100402AH   LINE      CODE     ---       #10189
      0100402AH   LINE      CODE     ---       #10190
      0100402DH   LINE      CODE     ---       #10191
      01004030H   LINE      CODE     ---       #10194
      01004037H   LINE      CODE     ---       #10195
      01004037H   LINE      CODE     ---       #10197
      0100403DH   LINE      CODE     ---       #10198
      0100403DH   LINE      CODE     ---       #10201
      0100403DH   LINE      CODE     ---       #10202
      01004047H   LINE      CODE     ---       #10203
      01004047H   LINE      CODE     ---       #10204
      0100404AH   LINE      CODE     ---       #10205
      0100404DH   LINE      CODE     ---       #10208
      01004054H   LINE      CODE     ---       #10209
      01004054H   LINE      CODE     ---       #10211
      0100405AH   LINE      CODE     ---       #10212
      0100405AH   LINE      CODE     ---       #10215
      0100405AH   LINE      CODE     ---       #10217
      0100405FH   LINE      CODE     ---       #10218
      0100405FH   LINE      CODE     ---       #10219
      01004062H   LINE      CODE     ---       #10222
      01004069H   LINE      CODE     ---       #10223
      01004069H   LINE      CODE     ---       #10225
      0100406FH   LINE      CODE     ---       #10226
      0100406FH   LINE      CODE     ---       #10229
      0100406FH   LINE      CODE     ---       #10230
      0100406FH   LINE      CODE     ---       #10232
      ---         BLOCKEND  ---      ---       LVL=0

      01006E13H   BLOCK     CODE     ---       LVL=0
      01006E13H   LINE      CODE     ---       #10238
      01006E13H   LINE      CODE     ---       #10239
      01006E13H   LINE      CODE     ---       #10240
LX51 LINKER/LOCATER V4.41                                                             05/23/2018  09:43:07  PAGE 117


      01006E15H   LINE      CODE     ---       #10242
      01006E15H   LINE      CODE     ---       #10244
      01006E28H   LINE      CODE     ---       #10246
      01006E30H   LINE      CODE     ---       #10247
      01006E30H   LINE      CODE     ---       #10250
      01006E30H   LINE      CODE     ---       #10252
      01006E36H   LINE      CODE     ---       #10253
      01006E36H   LINE      CODE     ---       #10256
      ---         BLOCKEND  ---      ---       LVL=0

      01007776H   BLOCK     CODE     ---       LVL=0
      01007776H   LINE      CODE     ---       #10261
      01007776H   LINE      CODE     ---       #10262
      01007776H   LINE      CODE     ---       #10263
      ---         BLOCKEND  ---      ---       LVL=0

      01007760H   BLOCK     CODE     ---       LVL=0
      01007760H   LINE      CODE     ---       #10268
      01007760H   LINE      CODE     ---       #10269
      01007760H   LINE      CODE     ---       #10270
      01007762H   LINE      CODE     ---       #10271
      ---         BLOCKEND  ---      ---       LVL=0

      01007763H   BLOCK     CODE     ---       LVL=0
      01007763H   LINE      CODE     ---       #10276
      01007763H   LINE      CODE     ---       #10277
      01007763H   LINE      CODE     ---       #10278
      01007765H   LINE      CODE     ---       #10279
      ---         BLOCKEND  ---      ---       LVL=0

      01007766H   BLOCK     CODE     ---       LVL=0
      01007766H   LINE      CODE     ---       #10284
      01007766H   LINE      CODE     ---       #10285
      01007766H   LINE      CODE     ---       #10286
      01007768H   LINE      CODE     ---       #10287
      ---         BLOCKEND  ---      ---       LVL=0

      0100770BH   BLOCK     CODE     ---       LVL=0
      0100770BH   LINE      CODE     ---       #10292
      0100770BH   LINE      CODE     ---       #10293
      0100770BH   LINE      CODE     ---       #10294
      0100770EH   LINE      CODE     ---       #10295
      01007710H   LINE      CODE     ---       #10296
      ---         BLOCKEND  ---      ---       LVL=0

      01007711H   BLOCK     CODE     ---       LVL=0
      01007711H   LINE      CODE     ---       #10301
      01007711H   LINE      CODE     ---       #10302
      01007711H   LINE      CODE     ---       #10303
      01007714H   LINE      CODE     ---       #10304
      01007716H   LINE      CODE     ---       #10305
      ---         BLOCKEND  ---      ---       LVL=0

      01007769H   BLOCK     CODE     ---       LVL=0
      01007769H   LINE      CODE     ---       #10310
      01007769H   LINE      CODE     ---       #10312
      01007769H   LINE      CODE     ---       #10314
      0100776BH   LINE      CODE     ---       #10315
      ---         BLOCKEND  ---      ---       LVL=0

      01006719H   BLOCK     CODE     ---       LVL=0
      01006719H   BLOCK     CODE     NEAR LAB  LVL=1
      02000731H   SYMBOL    XDATA    BYTE      __nesc_atomic
      ---         BLOCKEND  ---      ---       LVL=1
      01006719H   LINE      CODE     ---       #10318
LX51 LINKER/LOCATER V4.41                                                             05/23/2018  09:43:07  PAGE 118


      01006719H   LINE      CODE     ---       #10320
      01006719H   LINE      CODE     ---       #10323
      01006721H   LINE      CODE     ---       #10330
      01006721H   LINE      CODE     ---       #10331
      01006721H   LINE      CODE     ---       #10335
      01006724H   LINE      CODE     ---       #10341
      01006727H   LINE      CODE     ---       #10342
      0100672DH   LINE      CODE     ---       #10348
      01006730H   LINE      CODE     ---       #10349
      01006736H   LINE      CODE     ---       #10350
      01006736H   LINE      CODE     ---       #10352
      0100673EH   LINE      CODE     ---       #10355
      01006741H   LINE      CODE     ---       #10357
      01006744H   LINE      CODE     ---       #10360
      01006747H   LINE      CODE     ---       #10365
      0100674BH   LINE      CODE     ---       #10366
      ---         BLOCKEND  ---      ---       LVL=0

      0100699CH   BLOCK     CODE     ---       LVL=0
      00000007H   SYMBOL    DATA     BYTE      source
      010069B3H   BLOCK     CODE     NEAR LAB  LVL=1
      02000732H   SYMBOL    XDATA    BYTE      ____clkcon
      02000733H   SYMBOL    XDATA    BYTE      ____clkconsta
      ---         BLOCKEND  ---      ---       LVL=1
      0100699CH   LINE      CODE     ---       #10369
      0100699CH   LINE      CODE     ---       #10370
      0100699CH   LINE      CODE     ---       #10373
      010069A1H   LINE      CODE     ---       #10374
      010069A4H   LINE      CODE     ---       #10375
      010069A4H   LINE      CODE     ---       #10376
      010069A7H   LINE      CODE     ---       #10377
      010069AAH   LINE      CODE     ---       #10378
      010069ACH   LINE      CODE     ---       #10379
      010069ACH   LINE      CODE     ---       #10381
      010069B0H   LINE      CODE     ---       #10382
      010069B3H   LINE      CODE     ---       #10383
      010069B3H   LINE      CODE     ---       #10384
      010069B3H   LINE      CODE     ---       #10386
      010069B3H   LINE      CODE     ---       #10393
      010069B9H   LINE      CODE     ---       #10395
      010069B9H   LINE      CODE     ---       #10397
      010069BFH   LINE      CODE     ---       #10398
      010069BFH   LINE      CODE     ---       #10399
      010069C9H   LINE      CODE     ---       #10402
      010069C9H   LINE      CODE     ---       #10403
      010069C9H   LINE      CODE     ---       #10407
      010069CBH   LINE      CODE     ---       #10408
      ---         BLOCKEND  ---      ---       LVL=0

      010062B6H   BLOCK     CODE     ---       LVL=0
      00000007H   SYMBOL    DATA     BYTE      source
      010062B6H   BLOCK     CODE     NEAR LAB  LVL=1
      00000006H   SYMBOL    DATA     BYTE      osc32k_bm
      010062DAH   BLOCK     CODE     NEAR LAB  LVL=2
      02000732H   SYMBOL    XDATA    BYTE      ____clkcon
      02000733H   SYMBOL    XDATA    BYTE      ____clkconsta
      ---         BLOCKEND  ---      ---       LVL=2
      ---         BLOCKEND  ---      ---       LVL=1
      010062B6H   LINE      CODE     ---       #10410
      010062B6H   LINE      CODE     ---       #10411
      010062B6H   LINE      CODE     ---       #10412
      010062BBH   LINE      CODE     ---       #10418
      010062BEH   LINE      CODE     ---       #10419
      010062C8H   LINE      CODE     ---       #10423
      010062CCH   LINE      CODE     ---       #10424
LX51 LINKER/LOCATER V4.41                                                             05/23/2018  09:43:07  PAGE 119


      010062D1H   LINE      CODE     ---       #10425
      010062D3H   LINE      CODE     ---       #10426
      010062D3H   LINE      CODE     ---       #10428
      010062D6H   LINE      CODE     ---       #10429
      010062DAH   LINE      CODE     ---       #10430
      010062DAH   LINE      CODE     ---       #10431
      010062DAH   LINE      CODE     ---       #10433
      010062DAH   LINE      CODE     ---       #10440
      010062E0H   LINE      CODE     ---       #10442
      010062E0H   LINE      CODE     ---       #10444
      010062E6H   LINE      CODE     ---       #10445
      010062E6H   LINE      CODE     ---       #10446
      010062F0H   LINE      CODE     ---       #10449
      010062F0H   LINE      CODE     ---       #10450
      010062F0H   LINE      CODE     ---       #10453
      010062F3H   LINE      CODE     ---       #10454
      ---         BLOCKEND  ---      ---       LVL=0

      01001EC2H   BLOCK     CODE     ---       LVL=0
      02000737H   SYMBOL    XDATA    DWORD     baud
      01001EC2H   LINE      CODE     ---       #10457
      01001EC8H   LINE      CODE     ---       #10458
      01001EC8H   LINE      CODE     ---       #10459
      01002117H   LINE      CODE     ---       #10460
      010022D9H   LINE      CODE     ---       #10461
      ---         BLOCKEND  ---      ---       LVL=0

      010058A7H   BLOCK     CODE     ---       LVL=0
      010058A7H   LINE      CODE     ---       #10464
      010058A7H   LINE      CODE     ---       #10465
      010058A7H   LINE      CODE     ---       #10467
      010058A7H   LINE      CODE     ---       #10468
      010058C1H   LINE      CODE     ---       #10471
      010058C4H   LINE      CODE     ---       #10474
      010058CCH   LINE      CODE     ---       #10475
      010058D4H   LINE      CODE     ---       #10476
      010058DCH   LINE      CODE     ---       #10477
      010058E4H   LINE      CODE     ---       #10478
      010058ECH   LINE      CODE     ---       #10479
      010058F4H   LINE      CODE     ---       #10480
      010058FCH   LINE      CODE     ---       #10481
      01005904H   LINE      CODE     ---       #10482
      01005904H   LINE      CODE     ---       #10483
      ---         BLOCKEND  ---      ---       LVL=0

      01006DA6H   BLOCK     CODE     ---       LVL=0
      00000004H   SYMBOL    DATA     DWORD     address
      01006DA6H   BLOCK     CODE     NEAR LAB  LVL=1
      00000007H   SYMBOL    DATA     BYTE      page
      02000784H   SYMBOL    XDATA    WORD      old
      02000786H   SYMBOL    XDATA    BYTE      old_ea
      ---         BLOCKEND  ---      ---       LVL=1
      01006DA6H   LINE      CODE     ---       #10486
      01006DA6H   LINE      CODE     ---       #10487
      01006DA6H   LINE      CODE     ---       #10488
      01006DA6H   LINE      CODE     ---       #10494
      01006DABH   LINE      CODE     ---       #10498
      01006DB3H   LINE      CODE     ---       #10499
      01006DBAH   LINE      CODE     ---       #10500
      01006DC1H   LINE      CODE     ---       #10501
      01006DC8H   LINE      CODE     ---       #10502
      01006DC8H   LINE      CODE     ---       #10504
      01006DCAH   LINE      CODE     ---       #10505
      ---         BLOCKEND  ---      ---       LVL=0

LX51 LINKER/LOCATER V4.41                                                             05/23/2018  09:43:07  PAGE 120


      010057DCH   BLOCK     CODE     ---       LVL=0
      010057DCH   BLOCK     CODE     NEAR LAB  LVL=1
      00000004H   SYMBOL    DATA     WORD      addr
      02000777H   SYMBOL    XDATA    WORD      pan
      ---         BLOCKEND  ---      ---       LVL=1
      010057DCH   LINE      CODE     ---       #10508
      010057DCH   LINE      CODE     ---       #10509
      010057DCH   LINE      CODE     ---       #10515
      010057E4H   LINE      CODE     ---       #10516
      010057ECH   LINE      CODE     ---       #10517
      010057F4H   LINE      CODE     ---       #10518
      010057FCH   LINE      CODE     ---       #10519
      01005804H   LINE      CODE     ---       #10520
      0100580CH   LINE      CODE     ---       #10521
      01005814H   LINE      CODE     ---       #10522
      0100581CH   LINE      CODE     ---       #10524
      01005827H   LINE      CODE     ---       #10525
      0100582EH   LINE      CODE     ---       #10527
      01005839H   LINE      CODE     ---       #10528
      0100583CH   LINE      CODE     ---       #10530
      0100583FH   LINE      CODE     ---       #10531
      01005842H   LINE      CODE     ---       #10532
      ---         BLOCKEND  ---      ---       LVL=0

      010075E8H   BLOCK     CODE     ---       LVL=0
      010075E8H   LINE      CODE     ---       #10535
      010075E8H   LINE      CODE     ---       #10536
      010075E8H   LINE      CODE     ---       #10537
      010075F2H   LINE      CODE     ---       #10538
      ---         BLOCKEND  ---      ---       LVL=0

      010075F3H   BLOCK     CODE     ---       LVL=0
      010075F3H   LINE      CODE     ---       #10541
      010075F3H   LINE      CODE     ---       #10542
      010075F3H   LINE      CODE     ---       #10543
      010075FDH   LINE      CODE     ---       #10544
      ---         BLOCKEND  ---      ---       LVL=0

      0100674CH   BLOCK     CODE     ---       LVL=0
      0100674CH   LINE      CODE     ---       #10547
      0100674CH   LINE      CODE     ---       #10548
      0100674CH   LINE      CODE     ---       #10550
      0100675DH   LINE      CODE     ---       #10552
      01006768H   LINE      CODE     ---       #10554
      01006773H   LINE      CODE     ---       #10555
      0100677EH   LINE      CODE     ---       #10556
      ---         BLOCKEND  ---      ---       LVL=0

      010072C0H   BLOCK     CODE     ---       LVL=0
      010072C0H   BLOCK     CODE     NEAR LAB  LVL=1
      00000007H   SYMBOL    DATA     BYTE      nextTask
      010072C7H   BLOCK     CODE     NEAR LAB  LVL=2
      02000732H   SYMBOL    XDATA    BYTE      __nesc_temp
      ---         BLOCKEND  ---      ---       LVL=2
      ---         BLOCKEND  ---      ---       LVL=1
      010072C0H   LINE      CODE     ---       #10559
      010072C0H   LINE      CODE     ---       #10560
      010072C0H   LINE      CODE     ---       #10561
      010072C0H   LINE      CODE     ---       #10566
      010072C3H   LINE      CODE     ---       #10568
      010072C7H   LINE      CODE     ---       #10569
      010072C7H   LINE      CODE     ---       #10570
      010072C7H   LINE      CODE     ---       #10571
      010072CCH   LINE      CODE     ---       #10576
      010072CEH   LINE      CODE     ---       #10577
LX51 LINKER/LOCATER V4.41                                                             05/23/2018  09:43:07  PAGE 121


      010072CEH   LINE      CODE     ---       #10578
      010072CEH   LINE      CODE     ---       #10579
      010072CEH   LINE      CODE     ---       #10581
      010072D1H   LINE      CODE     ---       #10582
      010072D3H   LINE      CODE     ---       #10583
      ---         BLOCKEND  ---      ---       LVL=0

      01007717H   BLOCK     CODE     ---       LVL=0
      02000735H   SYMBOL    XDATA    BYTE      id
      01007717H   LINE      CODE     ---       #10586
      0100771CH   LINE      CODE     ---       #10587
      0100771CH   LINE      CODE     ---       #10588
      ---         BLOCKEND  ---      ---       LVL=0

      010050EEH   BLOCK     CODE     ---       LVL=0
      02000734H   SYMBOL    XDATA    BYTE      arg_0x7ec64200
      010050EEH   LINE      CODE     ---       #10591
      010050F3H   LINE      CODE     ---       #10593
      01005132H   LINE      CODE     ---       #10595
      01005132H   LINE      CODE     ---       #10597
      01005135H   LINE      CODE     ---       #10599
      01005135H   LINE      CODE     ---       #10601
      01005135H   LINE      CODE     ---       #10603
      01005138H   LINE      CODE     ---       #10605
      01005138H   LINE      CODE     ---       #10607
      01005138H   LINE      CODE     ---       #10609
      0100513BH   LINE      CODE     ---       #10611
      0100513BH   LINE      CODE     ---       #10613
      0100513BH   LINE      CODE     ---       #10615
      0100513EH   LINE      CODE     ---       #10617
      0100513EH   LINE      CODE     ---       #10619
      0100513EH   LINE      CODE     ---       #10621
      01005141H   LINE      CODE     ---       #10623
      01005141H   LINE      CODE     ---       #10625
      01005141H   LINE      CODE     ---       #10627
      01005144H   LINE      CODE     ---       #10629
      01005144H   LINE      CODE     ---       #10631
      01005144H   LINE      CODE     ---       #10633
      01005147H   LINE      CODE     ---       #10635
      01005147H   LINE      CODE     ---       #10637
      01005147H   LINE      CODE     ---       #10639
      0100514AH   LINE      CODE     ---       #10641
      0100514AH   LINE      CODE     ---       #10643
      0100514AH   LINE      CODE     ---       #10645
      0100514DH   LINE      CODE     ---       #10647
      0100514DH   LINE      CODE     ---       #10649
      0100514DH   LINE      CODE     ---       #10651
      01005150H   LINE      CODE     ---       #10653
      01005150H   LINE      CODE     ---       #10655
      01005150H   LINE      CODE     ---       #10657
      01005153H   LINE      CODE     ---       #10659
      01005153H   LINE      CODE     ---       #10661
      01005153H   LINE      CODE     ---       #10663
      01005156H   LINE      CODE     ---       #10665
      01005156H   LINE      CODE     ---       #10667
      01005156H   LINE      CODE     ---       #10669
      01005159H   LINE      CODE     ---       #10671
      01005159H   LINE      CODE     ---       #10673
      01005159H   LINE      CODE     ---       #10675
      0100515CH   LINE      CODE     ---       #10677
      0100515CH   LINE      CODE     ---       #10679
      0100515CH   LINE      CODE     ---       #10681
      0100515FH   LINE      CODE     ---       #10683
      0100515FH   LINE      CODE     ---       #10685
      0100515FH   LINE      CODE     ---       #10687
LX51 LINKER/LOCATER V4.41                                                             05/23/2018  09:43:07  PAGE 122


      01005162H   LINE      CODE     ---       #10689
      01005162H   LINE      CODE     ---       #10691
      01005162H   LINE      CODE     ---       #10693
      01005165H   LINE      CODE     ---       #10695
      01005165H   LINE      CODE     ---       #10697
      01005165H   LINE      CODE     ---       #10699
      0100516DH   LINE      CODE     ---       #10701
      0100516DH   LINE      CODE     ---       #10703
      0100516DH   LINE      CODE     ---       #10705
      ---         BLOCKEND  ---      ---       LVL=0

      01003702H   BLOCK     CODE     ---       LVL=0
      020007BAH   SYMBOL    XDATA    BYTE      resource_id
      020007BBH   SYMBOL    XDATA    WORD      addr
      020007BDH   SYMBOL    XDATA    ---       msg
      020007C0H   SYMBOL    XDATA    BYTE      len
      0100370BH   BLOCK     CODE     NEAR LAB  LVL=1
      020007C1H   SYMBOL    XDATA    ---       __nesc_temp43
      020007C4H   SYMBOL    XDATA    ---       __nesc_temp42
      0100370BH   BLOCK     CODE     NEAR LAB  LVL=2
      020007C7H   SYMBOL    XDATA    BYTE      __nesc_atomic
      01003713H   BLOCK     CODE     NEAR LAB  LVL=3
      020007C8H   SYMBOL    XDATA    ---       header
      020007CBH   SYMBOL    XDATA    ---       meta_data
      01003814H   BLOCK     CODE     NEAR LAB  LVL=4
      020007CEH   SYMBOL    XDATA    BYTE      __nesc_temp
      ---         BLOCKEND  ---      ---       LVL=4
      ---         BLOCKEND  ---      ---       LVL=3
      ---         BLOCKEND  ---      ---       LVL=2
      ---         BLOCKEND  ---      ---       LVL=1
      01003702H   LINE      CODE     ---       #10708
      0100370BH   LINE      CODE     ---       #10709
      0100370BH   LINE      CODE     ---       #10710
      0100370BH   LINE      CODE     ---       #10714
      01003713H   LINE      CODE     ---       #10716
      01003728H   LINE      CODE     ---       #10717
      01003741H   LINE      CODE     ---       #10721
      01003750H   LINE      CODE     ---       #10724
      01003766H   LINE      CODE     ---       #10725
      01003772H   LINE      CODE     ---       #10726
      01003772H   LINE      CODE     ---       #10727
      0100379BH   LINE      CODE     ---       #10728
      0100379BH   LINE      CODE     ---       #10729
      010037C6H   LINE      CODE     ---       #10742
      010037D9H   LINE      CODE     ---       #10746
      010037E9H   LINE      CODE     ---       #10749
      010037FEH   LINE      CODE     ---       #10752
      0100380EH   LINE      CODE     ---       #10753
      01003814H   LINE      CODE     ---       #10759
      01003814H   LINE      CODE     ---       #10760
      01003837H   LINE      CODE     ---       #10766
      0100383FH   LINE      CODE     ---       #10768
      01003844H   LINE      CODE     ---       #10769
      01003844H   LINE      CODE     ---       #10770
      01003844H   LINE      CODE     ---       #10771
      01003844H   LINE      CODE     ---       #10773
      01003844H   LINE      CODE     ---       #10774
      ---         BLOCKEND  ---      ---       LVL=0

      01006E37H   BLOCK     CODE     ---       LVL=0
      01006E37H   BLOCK     CODE     NEAR LAB  LVL=1
      020007D0H   SYMBOL    XDATA    DWORD     i
      ---         BLOCKEND  ---      ---       LVL=1
      01006E37H   LINE      CODE     ---       #10777
      01006E37H   LINE      CODE     ---       #10778
LX51 LINKER/LOCATER V4.41                                                             05/23/2018  09:43:07  PAGE 123


      01006E37H   LINE      CODE     ---       #10780
      01006E37H   LINE      CODE     ---       #10781
      01006E41H   LINE      CODE     ---       #10783
      01006E44H   LINE      CODE     ---       #10784
      01006E47H   LINE      CODE     ---       #10787
      01006E5AH   LINE      CODE     ---       #10788
      01006E5AH   LINE      CODE     ---       #10789
      ---         BLOCKEND  ---      ---       LVL=0

      01006160H   BLOCK     CODE     ---       LVL=0
      ---         BLOCKEND  ---      ---       LVL=0

      01006168H   BLOCK     CODE     ---       LVL=0
      01006168H   BLOCK     CODE     NEAR LAB  LVL=1
      020007CFH   SYMBOL    XDATA    BYTE      __nesc_atomic
      ---         BLOCKEND  ---      ---       LVL=1
      01006168H   LINE      CODE     ---       #10792
      01006168H   LINE      CODE     ---       #10793
      01006168H   LINE      CODE     ---       #10794
      01006170H   LINE      CODE     ---       #10796
      01006176H   LINE      CODE     ---       #10797
      01006176H   LINE      CODE     ---       #10798
      01006181H   LINE      CODE     ---       #10799
      01006187H   LINE      CODE     ---       #10800
      01006187H   LINE      CODE     ---       #10803
      01006196H   LINE      CODE     ---       #10804
      01006196H   LINE      CODE     ---       #10807
      01006199H   LINE      CODE     ---       #10808
      01006199H   LINE      CODE     ---       #10809
      01006199H   LINE      CODE     ---       #10811
      010061A1H   LINE      CODE     ---       #10814
      010061A4H   LINE      CODE     ---       #10815
      ---         BLOCKEND  ---      ---       LVL=0

      010071A2H   BLOCK     CODE     ---       LVL=0
      010071A2H   BLOCK     CODE     NEAR LAB  LVL=1
      00000004H   SYMBOL    DATA     WORD      myAddr
      010071A2H   BLOCK     CODE     NEAR LAB  LVL=2
      020007D0H   SYMBOL    XDATA    BYTE      __nesc_atomic
      ---         BLOCKEND  ---      ---       LVL=2
      ---         BLOCKEND  ---      ---       LVL=1
      010071A2H   LINE      CODE     ---       #10818
      010071A2H   LINE      CODE     ---       #10820
      010071A2H   LINE      CODE     ---       #10821
      010071A2H   LINE      CODE     ---       #10824
      010071AAH   LINE      CODE     ---       #10826
      010071B2H   LINE      CODE     ---       #10828
      010071B5H   LINE      CODE     ---       #10829
      010071B9H   LINE      CODE     ---       #10830
      ---         BLOCKEND  ---      ---       LVL=0

      01006C02H   BLOCK     CODE     ---       LVL=0
      00000007H   SYMBOL    DATA     BYTE      idx
      01006C09H   BLOCK     CODE     NEAR LAB  LVL=1
      020007E0H   SYMBOL    XDATA    ---       __nesc_temp
      ---         BLOCKEND  ---      ---       LVL=1
      01006C02H   LINE      CODE     ---       #10833
      01006C02H   LINE      CODE     ---       #10834
      01006C02H   LINE      CODE     ---       #10836
      01006C02H   LINE      CODE     ---       #10837
      01006C07H   LINE      CODE     ---       #10838
      01006C09H   LINE      CODE     ---       #10839
      01006C09H   LINE      CODE     ---       #10840
      01006C29H   LINE      CODE     ---       #10845
      01006C29H   LINE      CODE     ---       #10846
LX51 LINKER/LOCATER V4.41                                                             05/23/2018  09:43:07  PAGE 124


      01006C29H   LINE      CODE     ---       #10847
      01006C29H   LINE      CODE     ---       #10848
      ---         BLOCKEND  ---      ---       LVL=0

      01006A55H   BLOCK     CODE     ---       LVL=0
      ---         BLOCKEND  ---      ---       LVL=0

      01006A5BH   BLOCK     CODE     ---       LVL=0
      00000006H   SYMBOL    DATA     BYTE      id
      01006A5DH   BLOCK     CODE     NEAR LAB  LVL=1
      020007D8H   SYMBOL    XDATA    BYTE      __nesc_atomic
      01006A65H   BLOCK     CODE     NEAR LAB  LVL=2
      020007D9H   SYMBOL    XDATA    BYTE      __nesc_temp
      ---         BLOCKEND  ---      ---       LVL=2
      ---         BLOCKEND  ---      ---       LVL=1
      01006A5BH   LINE      CODE     ---       #10851
      01006A5DH   LINE      CODE     ---       #10852
      01006A5DH   LINE      CODE     ---       #10853
      01006A65H   LINE      CODE     ---       #10857
      01006A65H   LINE      CODE     ---       #10858
      01006A76H   LINE      CODE     ---       #10864
      01006A7EH   LINE      CODE     ---       #10866
      01006A81H   LINE      CODE     ---       #10867
      01006A81H   LINE      CODE     ---       #10868
      01006A81H   LINE      CODE     ---       #10869
      01006A81H   LINE      CODE     ---       #10871
      01006A81H   LINE      CODE     ---       #10872
      ---         BLOCKEND  ---      ---       LVL=0

      0100690AH   BLOCK     CODE     ---       LVL=0
      00000001H   SYMBOL    DATA     ---       msg
      00000005H   SYMBOL    DATA     BYTE      result
      0100690AH   BLOCK     CODE     NEAR LAB  LVL=1
      02000736H   SYMBOL    XDATA    BYTE      __nesc_atomic
      02000736H   SYMBOL    XDATA    BYTE      __nesc_atomic
      ---         BLOCKEND  ---      ---       LVL=1
      0100692AH   BLOCK     CODE     NEAR LAB  LVL=1
      02000736H   SYMBOL    XDATA    BYTE      __nesc_atomic
      ---         BLOCKEND  ---      ---       LVL=1
      0100690AH   LINE      CODE     ---       #10875
      0100690AH   LINE      CODE     ---       #10876
      0100690AH   LINE      CODE     ---       #10877
      01006912H   LINE      CODE     ---       #10879
      01006918H   LINE      CODE     ---       #10880
      01006918H   LINE      CODE     ---       #10881
      01006918H   LINE      CODE     ---       #10883
      0100691FH   LINE      CODE     ---       #10886
      0100691FH   LINE      CODE     ---       #10887
      0100691FH   LINE      CODE     ---       #10888
      0100691FH   LINE      CODE     ---       #10890
      01006927H   LINE      CODE     ---       #10894
      0100692AH   LINE      CODE     ---       #10895
      01006932H   LINE      CODE     ---       #10897
      01006937H   LINE      CODE     ---       #10899
      0100693AH   LINE      CODE     ---       #10900
      ---         BLOCKEND  ---      ---       LVL=0

      010065AFH   BLOCK     CODE     ---       LVL=0
      ---         BLOCKEND  ---      ---       LVL=0

      010065B7H   BLOCK     CODE     ---       LVL=0
      020007A3H   SYMBOL    XDATA    ---       msg
      010065B7H   LINE      CODE     ---       #10904
      010065C2H   LINE      CODE     ---       #10905
      010065C2H   LINE      CODE     ---       #10906
LX51 LINKER/LOCATER V4.41                                                             05/23/2018  09:43:07  PAGE 125


      010065E3H   LINE      CODE     ---       #10907
      ---         BLOCKEND  ---      ---       LVL=0

      010061A5H   BLOCK     CODE     ---       LVL=0
      ---         BLOCKEND  ---      ---       LVL=0

      010061ADH   BLOCK     CODE     ---       LVL=0
      020007B4H   SYMBOL    XDATA    ---       msg
      020007B7H   SYMBOL    XDATA    ---       len
      010061ADH   LINE      CODE     ---       #10910
      010061B8H   LINE      CODE     ---       #10911
      010061B8H   LINE      CODE     ---       #10912
      010061C4H   LINE      CODE     ---       #10913
      010061C4H   LINE      CODE     ---       #10914
      010061D9H   LINE      CODE     ---       #10915
      010061D9H   LINE      CODE     ---       #10917
      010061E9H   LINE      CODE     ---       #10918
      ---         BLOCKEND  ---      ---       LVL=0

      0100516EH   BLOCK     CODE     ---       LVL=0
      020007B4H   SYMBOL    XDATA    BYTE      num
      020007B5H   SYMBOL    XDATA    DWORD     dt
      01005173H   BLOCK     CODE     NEAR LAB  LVL=1
      020007B9H   SYMBOL    XDATA    BYTE      __nesc_atomic
      ---         BLOCKEND  ---      ---       LVL=1
      0100516EH   LINE      CODE     ---       #10921
      01005173H   LINE      CODE     ---       #10922
      01005173H   LINE      CODE     ---       #10923
      0100517BH   LINE      CODE     ---       #10925
      0100517BH   LINE      CODE     ---       #10927
      0100517BH   LINE      CODE     ---       #10929
      0100518CH   LINE      CODE     ---       #10931
      0100518CH   LINE      CODE     ---       #10933
      010051B7H   LINE      CODE     ---       #10934
      010051B7H   LINE      CODE     ---       #10936
      010051BAH   LINE      CODE     ---       #10937
      010051BAH   LINE      CODE     ---       #10938
      010051BAH   LINE      CODE     ---       #10939
      010051BAH   LINE      CODE     ---       #10942
      010051E5H   LINE      CODE     ---       #10943
      010051E5H   LINE      CODE     ---       #10945
      ---         BLOCKEND  ---      ---       LVL=0

      01005D84H   BLOCK     CODE     ---       LVL=0
      ---         BLOCKEND  ---      ---       LVL=0

      01005D8CH   BLOCK     CODE     ---       LVL=0
      020007BAH   SYMBOL    XDATA    INT       i
      01005D8CH   BLOCK     CODE     NEAR LAB  LVL=1
      020007BAH   SYMBOL    XDATA    INT       i
      ---         BLOCKEND  ---      ---       LVL=1
      01005D8CH   LINE      CODE     ---       #10949
      01005D8CH   LINE      CODE     ---       #10950
      01005D8CH   LINE      CODE     ---       #10951
      01005D93H   LINE      CODE     ---       #10954
      01005DB0H   LINE      CODE     ---       #10955
      01005DB0H   LINE      CODE     ---       #10956
      01005DCBH   LINE      CODE     ---       #10957
      01005DCDH   LINE      CODE     ---       #10958
      ---         BLOCKEND  ---      ---       LVL=0

      01006BD9H   BLOCK     CODE     ---       LVL=0
      00000007H   SYMBOL    DATA     CHAR      c
      01006BD9H   BLOCK     CODE     NEAR LAB  LVL=1
      00000004H   SYMBOL    DATA     WORD      i
LX51 LINKER/LOCATER V4.41                                                             05/23/2018  09:43:07  PAGE 126


      ---         BLOCKEND  ---      ---       LVL=1
      01006BD9H   LINE      CODE     ---       #10961
      01006BD9H   LINE      CODE     ---       #10962
      01006BD9H   LINE      CODE     ---       #10965
      01006BDCH   LINE      CODE     ---       #10966
      01006BDCH   LINE      CODE     ---       #10967
      01006BE1H   LINE      CODE     ---       #10968
      01006BE1H   LINE      CODE     ---       #10969
      01006BE1H   LINE      CODE     ---       #10970
      01006BECH   LINE      CODE     ---       #10972
      01006BEEH   LINE      CODE     ---       #10974
      01006BF1H   LINE      CODE     ---       #10975
      01006BF1H   LINE      CODE     ---       #10976
      01006BF6H   LINE      CODE     ---       #10977
      01006BF6H   LINE      CODE     ---       #10978
      01006BF6H   LINE      CODE     ---       #10979
      01006C01H   LINE      CODE     ---       #10980
      ---         BLOCKEND  ---      ---       LVL=0

      010054D4H   BLOCK     CODE     ---       LVL=0
      00000007H   SYMBOL    DATA     BYTE      num
      020007BBH   SYMBOL    XDATA    DWORD     t0
      020007BFH   SYMBOL    XDATA    DWORD     dt
      020007C3H   SYMBOL    XDATA    BYTE      isoneshot
      010054D4H   BLOCK     CODE     NEAR LAB  LVL=1
      020007C4H   SYMBOL    XDATA    ---       timer
      ---         BLOCKEND  ---      ---       LVL=1
      010054D4H   LINE      CODE     ---       #10983
      010054D4H   LINE      CODE     ---       #10984
      010054D4H   LINE      CODE     ---       #10986
      010054D4H   LINE      CODE     ---       #10987
      010054EDH   LINE      CODE     ---       #10990
      01005509H   LINE      CODE     ---       #10991
      01005528H   LINE      CODE     ---       #10992
      0100553FH   LINE      CODE     ---       #10993
      01005544H   LINE      CODE     ---       #10994
      ---         BLOCKEND  ---      ---       LVL=0

      010044B5H   BLOCK     CODE     ---       LVL=0
      010044B5H   BLOCK     CODE     NEAR LAB  LVL=1
      020007C2H   SYMBOL    XDATA    DWORD     rv
      020007C6H   SYMBOL    XDATA    DWORD     high
      020007CAH   SYMBOL    XDATA    WORD      low
      01004502H   BLOCK     CODE     NEAR LAB  LVL=2
      020007CCH   SYMBOL    XDATA    DWORD     high_to
      020007D0H   SYMBOL    XDATA    DWORD     low_to
      020007CCH   SYMBOL    XDATA    DWORD     __nesc_temp
      ---         BLOCKEND  ---      ---       LVL=2
      0100455FH   BLOCK     CODE     NEAR LAB  LVL=2
      020007CCH   SYMBOL    XDATA    DWORD     __nesc_temp
      ---         BLOCKEND  ---      ---       LVL=2
      ---         BLOCKEND  ---      ---       LVL=1
      010044B5H   LINE      CODE     ---       #10999
      010044B5H   LINE      CODE     ---       #11000
      010044B5H   LINE      CODE     ---       #11002
      010044B5H   LINE      CODE     ---       #11003
      010044BFH   LINE      CODE     ---       #11004
      010044CDH   LINE      CODE     ---       #11005
      010044D8H   LINE      CODE     ---       #11007
      010044DEH   LINE      CODE     ---       #11008
      010044DEH   LINE      CODE     ---       #11015
      010044F7H   LINE      CODE     ---       #11016
      01004502H   LINE      CODE     ---       #11017
      01004502H   LINE      CODE     ---       #11019
      01004502H   LINE      CODE     ---       #11020
LX51 LINKER/LOCATER V4.41                                                             05/23/2018  09:43:07  PAGE 127


      01004516H   LINE      CODE     ---       #11021
      01004530H   LINE      CODE     ---       #11024
      0100455FH   LINE      CODE     ---       #11025
      0100455FH   LINE      CODE     ---       #11027
      0100455FH   LINE      CODE     ---       #11028
      01004573H   LINE      CODE     ---       #11033
      01004581H   LINE      CODE     ---       #11034
      01004581H   LINE      CODE     ---       #11035
      01004581H   LINE      CODE     ---       #11036
      ---         BLOCKEND  ---      ---       LVL=0

      01006BAFH   BLOCK     CODE     ---       LVL=0
      ---         BLOCKEND  ---      ---       LVL=0

      01006BB5H   BLOCK     CODE     ---       LVL=0
      01006BB5H   BLOCK     CODE     NEAR LAB  LVL=1
      020007D4H   SYMBOL    XDATA    WORD      r
      01006BCDH   BLOCK     CODE     NEAR LAB  LVL=2
      020007D6H   SYMBOL    XDATA    WORD      __nesc_temp
      ---         BLOCKEND  ---      ---       LVL=2
      ---         BLOCKEND  ---      ---       LVL=1
      01006BB5H   LINE      CODE     ---       #11039
      01006BB5H   LINE      CODE     ---       #11040
      01006BB5H   LINE      CODE     ---       #11042
      01006BB5H   LINE      CODE     ---       #11043
      01006BB5H   LINE      CODE     ---       #11047
      01006BBFH   LINE      CODE     ---       #11049
      01006BCDH   LINE      CODE     ---       #11050
      01006BCDH   LINE      CODE     ---       #11054
      01006BCDH   LINE      CODE     ---       #11055
      01006BD8H   LINE      CODE     ---       #11060
      01006BD8H   LINE      CODE     ---       #11061
      01006BD8H   LINE      CODE     ---       #11062
      01006BD8H   LINE      CODE     ---       #11063
      ---         BLOCKEND  ---      ---       LVL=0

      01005B13H   BLOCK     CODE     ---       LVL=0
      ---         BLOCKEND  ---      ---       LVL=0

      01005B22H   BLOCK     CODE     ---       LVL=0
      02000740H   SYMBOL    XDATA    ---       msg
      02000743H   SYMBOL    XDATA    ---       len
      01005B22H   LINE      CODE     ---       #11066
      01005B2DH   LINE      CODE     ---       #11067
      01005B2DH   LINE      CODE     ---       #11068
      01005B39H   LINE      CODE     ---       #11069
      01005B39H   LINE      CODE     ---       #11070
      01005B4EH   LINE      CODE     ---       #11071
      01005B4EH   LINE      CODE     ---       #11073
      01005B64H   LINE      CODE     ---       #11074
      ---         BLOCKEND  ---      ---       LVL=0

      010055BDH   BLOCK     CODE     ---       LVL=0
      ---         BLOCKEND  ---      ---       LVL=0

      010055CCH   BLOCK     CODE     ---       LVL=0
      02000779H   SYMBOL    XDATA    ---       trace
      0200077CH   SYMBOL    XDATA    WORD      node_id
      0200077EH   SYMBOL    XDATA    BYTE      i
      010055DDH   BLOCK     CODE     NEAR LAB  LVL=1
      0200077EH   SYMBOL    XDATA    BYTE      i
      ---         BLOCKEND  ---      ---       LVL=1
      010055CCH   LINE      CODE     ---       #11077
      010055DDH   LINE      CODE     ---       #11078
      010055DDH   LINE      CODE     ---       #11082
LX51 LINKER/LOCATER V4.41                                                             05/23/2018  09:43:07  PAGE 128


      010055FBH   LINE      CODE     ---       #11083
      010055FBH   LINE      CODE     ---       #11084
      0100561BH   LINE      CODE     ---       #11085
      0100561BH   LINE      CODE     ---       #11086
      01005621H   LINE      CODE     ---       #11087
      01005621H   LINE      CODE     ---       #11088
      01005629H   LINE      CODE     ---       #11090
      0100562DH   LINE      CODE     ---       #11091
      ---         BLOCKEND  ---      ---       LVL=0

      01005843H   BLOCK     CODE     ---       LVL=0
      00000001H   SYMBOL    DATA     ---       msg
      0200078EH   SYMBOL    XDATA    ---       trace_ack
      02000791H   SYMBOL    XDATA    INT       index
      01005843H   BLOCK     CODE     NEAR LAB  LVL=1
      02000793H   SYMBOL    XDATA    WORD      node_id
      ---         BLOCKEND  ---      ---       LVL=1
      01005843H   LINE      CODE     ---       #11093
      01005843H   LINE      CODE     ---       #11094
      01005843H   LINE      CODE     ---       #11095
      0100584BH   LINE      CODE     ---       #11098
      01005858H   LINE      CODE     ---       #11100
      0100586AH   LINE      CODE     ---       #11101
      0100586AH   LINE      CODE     ---       #11102
      0100588DH   LINE      CODE     ---       #11103
      010058A6H   LINE      CODE     ---       #11104
      010058A6H   LINE      CODE     ---       #11105
      ---         BLOCKEND  ---      ---       LVL=0

      0100422EH   BLOCK     CODE     ---       LVL=0
      02000795H   SYMBOL    XDATA    WORD      addr
      02000797H   SYMBOL    XDATA    ---       msg
      0200079AH   SYMBOL    XDATA    BYTE      len
      01004231H   BLOCK     CODE     NEAR LAB  LVL=1
      00000007H   SYMBOL    DATA     BYTE      result
      01004231H   BLOCK     CODE     NEAR LAB  LVL=2
      0200079BH   SYMBOL    XDATA    BYTE      __nesc_atomic
      01004239H   BLOCK     CODE     NEAR LAB  LVL=3
      0200079CH   SYMBOL    XDATA    ---       header
      0200079FH   SYMBOL    XDATA    ---       meta_data
      0100426BH   BLOCK     CODE     NEAR LAB  LVL=4
      020007A2H   SYMBOL    XDATA    BYTE      __nesc_temp
      ---         BLOCKEND  ---      ---       LVL=4
      010042F5H   BLOCK     CODE     NEAR LAB  LVL=4
      020007A2H   SYMBOL    XDATA    BYTE      __nesc_temp
      ---         BLOCKEND  ---      ---       LVL=4
      ---         BLOCKEND  ---      ---       LVL=3
      ---         BLOCKEND  ---      ---       LVL=2
      ---         BLOCKEND  ---      ---       LVL=1
      0100422EH   LINE      CODE     ---       #11108
      01004231H   LINE      CODE     ---       #11109
      01004231H   LINE      CODE     ---       #11110
      01004231H   LINE      CODE     ---       #11112
      01004239H   LINE      CODE     ---       #11114
      0100424AH   LINE      CODE     ---       #11115
      01004265H   LINE      CODE     ---       #11117
      0100426BH   LINE      CODE     ---       #11118
      0100426BH   LINE      CODE     ---       #11119
      0100426BH   LINE      CODE     ---       #11120
      01004270H   LINE      CODE     ---       #11126
      01004270H   LINE      CODE     ---       #11128
      01004273H   LINE      CODE     ---       #11129
      01004273H   LINE      CODE     ---       #11130
      01004273H   LINE      CODE     ---       #11131
      01004273H   LINE      CODE     ---       #11132
LX51 LINKER/LOCATER V4.41                                                             05/23/2018  09:43:07  PAGE 129


      01004295H   LINE      CODE     ---       #11134
      0100429BH   LINE      CODE     ---       #11136
      010042AFH   LINE      CODE     ---       #11138
      010042C0H   LINE      CODE     ---       #11139
      010042C6H   LINE      CODE     ---       #11142
      010042CCH   LINE      CODE     ---       #11144
      010042CFH   LINE      CODE     ---       #11145
      010042CFH   LINE      CODE     ---       #11146
      010042D5H   LINE      CODE     ---       #11147
      010042DBH   LINE      CODE     ---       #11148
      010042F0H   LINE      CODE     ---       #11149
      010042F5H   LINE      CODE     ---       #11150
      010042F5H   LINE      CODE     ---       #11152
      010042F5H   LINE      CODE     ---       #11153
      010042FAH   LINE      CODE     ---       #11159
      01004302H   LINE      CODE     ---       #11161
      01004307H   LINE      CODE     ---       #11162
      01004307H   LINE      CODE     ---       #11163
      01004307H   LINE      CODE     ---       #11164
      01004307H   LINE      CODE     ---       #11166
      01004307H   LINE      CODE     ---       #11167
      ---         BLOCKEND  ---      ---       LVL=0

      010073BCH   BLOCK     CODE     ---       LVL=0
      ---         BLOCKEND  ---      ---       LVL=0

      010073C9H   BLOCK     CODE     ---       LVL=0
      00000001H   SYMBOL    DATA     ---       arg_0x7eb25e90
      00000007H   SYMBOL    DATA     BYTE      result
      010073C9H   BLOCK     CODE     NEAR LAB  LVL=1
      00000007H   SYMBOL    DATA     BYTE      result
      ---         BLOCKEND  ---      ---       LVL=1
      010073C9H   LINE      CODE     ---       #11170
      010073C9H   LINE      CODE     ---       #11176
      010073CCH   LINE      CODE     ---       #11180
      010073CCH   LINE      CODE     ---       #11182
      ---         BLOCKEND  ---      ---       LVL=0

      010071E8H   BLOCK     CODE     ---       LVL=0
      00000006H   SYMBOL    DATA     BYTE      result
      010071EAH   BLOCK     CODE     NEAR LAB  LVL=1
      02000739H   SYMBOL    XDATA    BYTE      __nesc_atomic
      ---         BLOCKEND  ---      ---       LVL=1
      010071E8H   LINE      CODE     ---       #11185
      010071EAH   LINE      CODE     ---       #11186
      010071EAH   LINE      CODE     ---       #11187
      010071F2H   LINE      CODE     ---       #11189
      010071F7H   LINE      CODE     ---       #11190
      010071F7H   LINE      CODE     ---       #11192
      010071FAH   LINE      CODE     ---       #11194
      ---         BLOCKEND  ---      ---       LVL=0

      010074A5H   BLOCK     CODE     ---       LVL=0
      02000744H   SYMBOL    XDATA    BYTE      resource_id
      02000745H   SYMBOL    XDATA    ---       msg
      02000748H   SYMBOL    XDATA    BYTE      error
      010074A5H   LINE      CODE     ---       #11198
      010074B3H   LINE      CODE     ---       #11199
      010074B3H   LINE      CODE     ---       #11200
      ---         BLOCKEND  ---      ---       LVL=0

      0100545BH   BLOCK     CODE     ---       LVL=0
      0200073FH   SYMBOL    XDATA    BYTE      arg_0x7e5f3dd8
      02000740H   SYMBOL    XDATA    ---       arg_0x7e6080a8
      02000743H   SYMBOL    XDATA    BYTE      arg_0x7e608230
LX51 LINKER/LOCATER V4.41                                                             05/23/2018  09:43:07  PAGE 130


      0100545BH   LINE      CODE     ---       #11203
      0100546BH   LINE      CODE     ---       #11205
      01005478H   LINE      CODE     ---       #11207
      01005478H   LINE      CODE     ---       #11209
      01005489H   LINE      CODE     ---       #11211
      01005489H   LINE      CODE     ---       #11213
      01005489H   LINE      CODE     ---       #11215
      0100549AH   LINE      CODE     ---       #11217
      0100549AH   LINE      CODE     ---       #11219
      0100549AH   LINE      CODE     ---       #11221
      010054ABH   LINE      CODE     ---       #11223
      010054ABH   LINE      CODE     ---       #11225
      010054ABH   LINE      CODE     ---       #11227
      010054BCH   LINE      CODE     ---       #11229
      010054BCH   LINE      CODE     ---       #11231
      010054BCH   LINE      CODE     ---       #11233
      010054D3H   LINE      CODE     ---       #11235
      010054D3H   LINE      CODE     ---       #11237
      010054D3H   LINE      CODE     ---       #11239
      ---         BLOCKEND  ---      ---       LVL=0

      01005FC1H   BLOCK     CODE     ---       LVL=0
      ---         BLOCKEND  ---      ---       LVL=0

      01005FCEH   BLOCK     CODE     ---       LVL=0
      00000001H   SYMBOL    DATA     ---       msg
      00000005H   SYMBOL    DATA     BYTE      result
      01005FCEH   BLOCK     CODE     NEAR LAB  LVL=1
      02000769H   SYMBOL    XDATA    BYTE      __nesc_atomic
      ---         BLOCKEND  ---      ---       LVL=1
      01005FCEH   LINE      CODE     ---       #11242
      01005FCEH   LINE      CODE     ---       #11243
      01005FCEH   LINE      CODE     ---       #11244
      01005FD6H   LINE      CODE     ---       #11246
      01005FDCH   LINE      CODE     ---       #11247
      01005FDCH   LINE      CODE     ---       #11248
      01005FDCH   LINE      CODE     ---       #11250
      01005FE4H   LINE      CODE     ---       #11253
      01005FE4H   LINE      CODE     ---       #11254
      01005FE4H   LINE      CODE     ---       #11255
      01005FE6H   LINE      CODE     ---       #11256
      01005FE9H   LINE      CODE     ---       #11259
      01005FF4H   LINE      CODE     ---       #11260
      01005FF9H   LINE      CODE     ---       #11261
      01005FF9H   LINE      CODE     ---       #11263
      01006001H   LINE      CODE     ---       #11265
      01006006H   LINE      CODE     ---       #11266
      ---         BLOCKEND  ---      ---       LVL=0

      0100622EH   BLOCK     CODE     ---       LVL=0
      ---         BLOCKEND  ---      ---       LVL=0

      0100623BH   BLOCK     CODE     ---       LVL=0
      00000001H   SYMBOL    DATA     ---       msg
      00000005H   SYMBOL    DATA     BYTE      result
      0100623BH   BLOCK     CODE     NEAR LAB  LVL=1
      02000769H   SYMBOL    XDATA    BYTE      __nesc_atomic
      ---         BLOCKEND  ---      ---       LVL=1
      0100623BH   LINE      CODE     ---       #11269
      0100623BH   LINE      CODE     ---       #11270
      0100623BH   LINE      CODE     ---       #11271
      01006243H   LINE      CODE     ---       #11273
      01006249H   LINE      CODE     ---       #11274
      01006249H   LINE      CODE     ---       #11275
      01006249H   LINE      CODE     ---       #11277
LX51 LINKER/LOCATER V4.41                                                             05/23/2018  09:43:07  PAGE 131


      01006251H   LINE      CODE     ---       #11280
      01006251H   LINE      CODE     ---       #11281
      01006251H   LINE      CODE     ---       #11282
      01006251H   LINE      CODE     ---       #11283
      01006254H   LINE      CODE     ---       #11286
      0100625FH   LINE      CODE     ---       #11287
      01006264H   LINE      CODE     ---       #11288
      01006264H   LINE      CODE     ---       #11290
      0100626CH   LINE      CODE     ---       #11292
      01006271H   LINE      CODE     ---       #11293
      ---         BLOCKEND  ---      ---       LVL=0

      01002D4AH   BLOCK     CODE     ---       LVL=0
      01002D4AH   BLOCK     CODE     NEAR LAB  LVL=1
      02000753H   SYMBOL    XDATA    DWORD     now
      02000757H   SYMBOL    XDATA    DWORD     expires
      0200075BH   SYMBOL    XDATA    DWORD     remaining
      ---         BLOCKEND  ---      ---       LVL=1
      01002D4AH   LINE      CODE     ---       #11296
      01002D4AH   LINE      CODE     ---       #11297
      01002D4AH   LINE      CODE     ---       #11299
      01002D4AH   LINE      CODE     ---       #11300
      01002D53H   LINE      CODE     ---       #11308
      01002D7FH   LINE      CODE     ---       #11311
      01002DA8H   LINE      CODE     ---       #11314
      01002DCAH   LINE      CODE     ---       #11315
      01002DCAH   LINE      CODE     ---       #11316
      01002E07H   LINE      CODE     ---       #11317
      01002E07H   LINE      CODE     ---       #11318
      01002E07H   LINE      CODE     ---       #11319
      01002E07H   LINE      CODE     ---       #11320
      01002E09H   LINE      CODE     ---       #11321
      01002E09H   LINE      CODE     ---       #11322
      01002E45H   LINE      CODE     ---       #11323
      01002E45H   LINE      CODE     ---       #11324
      01002E4FH   LINE      CODE     ---       #11325
      01002E4FH   LINE      CODE     ---       #11326
      01002E4FH   LINE      CODE     ---       #11327
      01002E6BH   LINE      CODE     ---       #11328
      01002E6BH   LINE      CODE     ---       #11329
      01002E8DH   LINE      CODE     ---       #11330
      01002EADH   LINE      CODE     ---       #11331
      01002EB7H   LINE      CODE     ---       #11332
      01002EB9H   LINE      CODE     ---       #11334
      01002EB9H   LINE      CODE     ---       #11335
      01002EE7H   LINE      CODE     ---       #11336
      01002EF1H   LINE      CODE     ---       #11337
      01002EF1H   LINE      CODE     ---       #11340
      ---         BLOCKEND  ---      ---       LVL=0

      01004ACEH   BLOCK     CODE     ---       LVL=0
      01004ACEH   BLOCK     CODE     NEAR LAB  LVL=1
      0200075FH   SYMBOL    XDATA    DWORD     rv
      02000763H   SYMBOL    XDATA    WORD      high
      02000765H   SYMBOL    XDATA    WORD      low
      01004B11H   BLOCK     CODE     NEAR LAB  LVL=2
      02000767H   SYMBOL    XDATA    DWORD     high_to
      0200076BH   SYMBOL    XDATA    DWORD     low_to
      02000767H   SYMBOL    XDATA    DWORD     __nesc_temp
      ---         BLOCKEND  ---      ---       LVL=2
      01004B62H   BLOCK     CODE     NEAR LAB  LVL=2
      02000767H   SYMBOL    XDATA    DWORD     __nesc_temp
      ---         BLOCKEND  ---      ---       LVL=2
      ---         BLOCKEND  ---      ---       LVL=1
      01004ACEH   LINE      CODE     ---       #11345
LX51 LINKER/LOCATER V4.41                                                             05/23/2018  09:43:07  PAGE 132


      01004ACEH   LINE      CODE     ---       #11346
      01004ACEH   LINE      CODE     ---       #11348
      01004ACEH   LINE      CODE     ---       #11349
      01004AD8H   LINE      CODE     ---       #11350
      01004AE7H   LINE      CODE     ---       #11351
      01004AF2H   LINE      CODE     ---       #11353
      01004AF8H   LINE      CODE     ---       #11354
      01004AF8H   LINE      CODE     ---       #11361
      01004B06H   LINE      CODE     ---       #11362
      01004B11H   LINE      CODE     ---       #11363
      01004B11H   LINE      CODE     ---       #11365
      01004B11H   LINE      CODE     ---       #11366
      01004B22H   LINE      CODE     ---       #11367
      01004B33H   LINE      CODE     ---       #11370
      01004B62H   LINE      CODE     ---       #11371
      01004B62H   LINE      CODE     ---       #11373
      01004B62H   LINE      CODE     ---       #11374
      01004B76H   LINE      CODE     ---       #11379
      01004B84H   LINE      CODE     ---       #11380
      01004B84H   LINE      CODE     ---       #11381
      01004B84H   LINE      CODE     ---       #11382
      ---         BLOCKEND  ---      ---       LVL=0

      010071FFH   BLOCK     CODE     ---       LVL=0
      010071FFH   BLOCK     CODE     NEAR LAB  LVL=1
      00000006H   SYMBOL    DATA     WORD      result
      ---         BLOCKEND  ---      ---       LVL=1
      010071FFH   LINE      CODE     ---       #11385
      010071FFH   LINE      CODE     ---       #11387
      010071FFH   LINE      CODE     ---       #11391
      01007207H   LINE      CODE     ---       #11393
      0100720DH   LINE      CODE     ---       #11394
      01007215H   LINE      CODE     ---       #11395
      01007215H   LINE      CODE     ---       #11396
      ---         BLOCKEND  ---      ---       LVL=0

      0100693BH   BLOCK     CODE     ---       LVL=0
      00000001H   SYMBOL    DATA     ---       msg
      00000005H   SYMBOL    DATA     BYTE      result
      0100693BH   BLOCK     CODE     NEAR LAB  LVL=1
      02000736H   SYMBOL    XDATA    BYTE      __nesc_atomic
      02000736H   SYMBOL    XDATA    BYTE      __nesc_atomic
      ---         BLOCKEND  ---      ---       LVL=1
      0100695BH   BLOCK     CODE     NEAR LAB  LVL=1
      02000736H   SYMBOL    XDATA    BYTE      __nesc_atomic
      ---         BLOCKEND  ---      ---       LVL=1
      0100693BH   LINE      CODE     ---       #11399
      0100693BH   LINE      CODE     ---       #11400
      0100693BH   LINE      CODE     ---       #11401
      01006943H   LINE      CODE     ---       #11403
      01006949H   LINE      CODE     ---       #11404
      01006949H   LINE      CODE     ---       #11405
      01006949H   LINE      CODE     ---       #11407
      01006950H   LINE      CODE     ---       #11410
      01006950H   LINE      CODE     ---       #11411
      01006950H   LINE      CODE     ---       #11412
      01006950H   LINE      CODE     ---       #11414
      01006958H   LINE      CODE     ---       #11418
      0100695BH   LINE      CODE     ---       #11419
      01006963H   LINE      CODE     ---       #11421
      01006968H   LINE      CODE     ---       #11423
      0100696BH   LINE      CODE     ---       #11424
      ---         BLOCKEND  ---      ---       LVL=0

      010065E4H   BLOCK     CODE     ---       LVL=0
LX51 LINKER/LOCATER V4.41                                                             05/23/2018  09:43:07  PAGE 133


      ---         BLOCKEND  ---      ---       LVL=0

      010065ECH   BLOCK     CODE     ---       LVL=0
      0200074CH   SYMBOL    XDATA    ---       msg
      010065ECH   LINE      CODE     ---       #11428
      010065F7H   LINE      CODE     ---       #11429
      010065F7H   LINE      CODE     ---       #11430
      01006618H   LINE      CODE     ---       #11431
      ---         BLOCKEND  ---      ---       LVL=0

      0100341FH   BLOCK     CODE     ---       LVL=0
      0200074BH   SYMBOL    XDATA    DWORD     now
      01003425H   BLOCK     CODE     NEAR LAB  LVL=1
      0200074FH   SYMBOL    XDATA    BYTE      num
      01003437H   BLOCK     CODE     NEAR LAB  LVL=2
      02000750H   SYMBOL    XDATA    ---       timer
      0100345EH   BLOCK     CODE     NEAR LAB  LVL=3
      02000753H   SYMBOL    XDATA    DWORD     elapsed
      ---         BLOCKEND  ---      ---       LVL=3
      ---         BLOCKEND  ---      ---       LVL=2
      ---         BLOCKEND  ---      ---       LVL=1
      0100341FH   LINE      CODE     ---       #11434
      01003425H   LINE      CODE     ---       #11435
      01003425H   LINE      CODE     ---       #11437
      01003425H   LINE      CODE     ---       #11440
      01003437H   LINE      CODE     ---       #11441
      01003437H   LINE      CODE     ---       #11442
      0100344FH   LINE      CODE     ---       #11444
      0100345EH   LINE      CODE     ---       #11445
      0100345EH   LINE      CODE     ---       #11446
      0100348BH   LINE      CODE     ---       #11448
      010034B3H   LINE      CODE     ---       #11449
      010034B3H   LINE      CODE     ---       #11450
      010034C7H   LINE      CODE     ---       #11451
      010034C7H   LINE      CODE     ---       #11452
      010034D6H   LINE      CODE     ---       #11453
      010034D8H   LINE      CODE     ---       #11455
      010034D8H   LINE      CODE     ---       #11457
      01003521H   LINE      CODE     ---       #11458
      01003521H   LINE      CODE     ---       #11460
      01003521H   LINE      CODE     ---       #11462
      01003521H   LINE      CODE     ---       #11464
      01003532H   LINE      CODE     ---       #11466
      01003532H   LINE      CODE     ---       #11468
      0100359EH   LINE      CODE     ---       #11469
      0100359EH   LINE      CODE     ---       #11471
      010035A1H   LINE      CODE     ---       #11472
      010035A1H   LINE      CODE     ---       #11473
      010035A1H   LINE      CODE     ---       #11474
      010035A1H   LINE      CODE     ---       #11478
      010035A9H   LINE      CODE     ---       #11479
      010035A9H   LINE      CODE     ---       #11480
      010035A9H   LINE      CODE     ---       #11481
      010035B2H   LINE      CODE     ---       #11483
      ---         BLOCKEND  ---      ---       LVL=0

      01002B72H   BLOCK     CODE     ---       LVL=0
      01002B72H   BLOCK     CODE     NEAR LAB  LVL=1
      02000764H   SYMBOL    XDATA    DWORD     now
      02000768H   SYMBOL    XDATA    DWORD     expires
      0200076CH   SYMBOL    XDATA    DWORD     remaining
      ---         BLOCKEND  ---      ---       LVL=1
      01002B72H   LINE      CODE     ---       #11488
      01002B72H   LINE      CODE     ---       #11489
      01002B72H   LINE      CODE     ---       #11491
LX51 LINKER/LOCATER V4.41                                                             05/23/2018  09:43:07  PAGE 134


      01002B72H   LINE      CODE     ---       #11492
      01002B7BH   LINE      CODE     ---       #11500
      01002BA7H   LINE      CODE     ---       #11503
      01002BD0H   LINE      CODE     ---       #11506
      01002BF2H   LINE      CODE     ---       #11507
      01002BF2H   LINE      CODE     ---       #11508
      01002C2FH   LINE      CODE     ---       #11509
      01002C2FH   LINE      CODE     ---       #11510
      01002C2FH   LINE      CODE     ---       #11511
      01002C2FH   LINE      CODE     ---       #11512
      01002C31H   LINE      CODE     ---       #11513
      01002C31H   LINE      CODE     ---       #11514
      01002C6DH   LINE      CODE     ---       #11515
      01002C6DH   LINE      CODE     ---       #11516
      01002C77H   LINE      CODE     ---       #11517
      01002C77H   LINE      CODE     ---       #11518
      01002C77H   LINE      CODE     ---       #11519
      01002C91H   LINE      CODE     ---       #11520
      01002C91H   LINE      CODE     ---       #11521
      01002CB1H   LINE      CODE     ---       #11522
      01002CD3H   LINE      CODE     ---       #11523
      01002CDDH   LINE      CODE     ---       #11524
      01002CDFH   LINE      CODE     ---       #11526
      01002CDFH   LINE      CODE     ---       #11527
      01002D0DH   LINE      CODE     ---       #11528
      01002D17H   LINE      CODE     ---       #11529
      01002D17H   LINE      CODE     ---       #11532
      ---         BLOCKEND  ---      ---       LVL=0

      01006331H   BLOCK     CODE     ---       LVL=0
      ---         BLOCKEND  ---      ---       LVL=0

      0100633DH   BLOCK     CODE     ---       LVL=0
      0100633DH   LINE      CODE     ---       #11537
      0100633DH   LINE      CODE     ---       #11538
      0100633DH   LINE      CODE     ---       #11540
      0100633DH   LINE      CODE     ---       #11541
      01006340H   LINE      CODE     ---       #11542
      01006342H   LINE      CODE     ---       #11543
      01006344H   LINE      CODE     ---       #11544
      01006348H   LINE      CODE     ---       #11545
      0100634AH   LINE      CODE     ---       #11547
      0100634CH   LINE      CODE     ---       #11550
      01006354H   LINE      CODE     ---       #11554
      0100635CH   LINE      CODE     ---       #11558
      01006364H   LINE      CODE     ---       #11561
      01006367H   LINE      CODE     ---       #11564
      0100636AH   LINE      CODE     ---       #11565
      0100636CH   LINE      CODE     ---       #11566
      0100636CH   LINE      CODE     ---       #11568
      0100636DH   LINE      CODE     ---       #11569
      ---         BLOCKEND  ---      ---       LVL=0

      01006272H   BLOCK     CODE     ---       LVL=0
      01006272H   BLOCK     CODE     NEAR LAB  LVL=1
      02000734H   SYMBOL    XDATA    BYTE      __nesc_atomic
      0100627AH   BLOCK     CODE     NEAR LAB  LVL=2
      02000735H   SYMBOL    XDATA    BYTE      i
      01006294H   BLOCK     CODE     NEAR LAB  LVL=3
      02000736H   SYMBOL    XDATA    BYTE      __nesc_temp
      ---         BLOCKEND  ---      ---       LVL=3
      010062A3H   BLOCK     CODE     NEAR LAB  LVL=3
      02000736H   SYMBOL    XDATA    BYTE      __nesc_temp
      ---         BLOCKEND  ---      ---       LVL=3
      ---         BLOCKEND  ---      ---       LVL=2
LX51 LINKER/LOCATER V4.41                                                             05/23/2018  09:43:07  PAGE 135


      ---         BLOCKEND  ---      ---       LVL=1
      01006272H   LINE      CODE     ---       #11572
      01006272H   LINE      CODE     ---       #11573
      01006272H   LINE      CODE     ---       #11574
      0100627AH   LINE      CODE     ---       #11578
      01006287H   LINE      CODE     ---       #11579
      01006287H   LINE      CODE     ---       #11580
      01006294H   LINE      CODE     ---       #11581
      01006294H   LINE      CODE     ---       #11582
      01006294H   LINE      CODE     ---       #11583
      01006299H   LINE      CODE     ---       #11589
      01006299H   LINE      CODE     ---       #11591
      0100629BH   LINE      CODE     ---       #11592
      0100629BH   LINE      CODE     ---       #11593
      0100629BH   LINE      CODE     ---       #11594
      0100629BH   LINE      CODE     ---       #11595
      010062A3H   LINE      CODE     ---       #11597
      010062A3H   LINE      CODE     ---       #11598
      010062A8H   LINE      CODE     ---       #11604
      010062B0H   LINE      CODE     ---       #11606
      010062B5H   LINE      CODE     ---       #11607
      010062B5H   LINE      CODE     ---       #11608
      010062B5H   LINE      CODE     ---       #11609
      010062B5H   LINE      CODE     ---       #11611
      010062B5H   LINE      CODE     ---       #11612
      ---         BLOCKEND  ---      ---       LVL=0

      01006542H   BLOCK     CODE     ---       LVL=0
      00000001H   SYMBOL    DATA     ---       _data
      00000005H   SYMBOL    DATA     BYTE      length
      01006542H   LINE      CODE     ---       #11615
      01006542H   LINE      CODE     ---       #11616
      01006542H   LINE      CODE     ---       #11617
      01006548H   LINE      CODE     ---       #11618
      01006548H   LINE      CODE     ---       #11619
      01006555H   LINE      CODE     ---       #11620
      01006555H   LINE      CODE     ---       #11621
      01006558H   LINE      CODE     ---       #11622
      01006558H   LINE      CODE     ---       #11624
      01006558H   LINE      CODE     ---       #11626
      01006566H   LINE      CODE     ---       #11628
      0100656CH   LINE      CODE     ---       #11629
      0100656CH   LINE      CODE     ---       #11632
      01006573H   LINE      CODE     ---       #11633
      01006574H   LINE      CODE     ---       #11634
      01006576H   LINE      CODE     ---       #11636
      01006578H   LINE      CODE     ---       #11637
      ---         BLOCKEND  ---      ---       LVL=0

      0100677FH   BLOCK     CODE     ---       LVL=0
      ---         BLOCKEND  ---      ---       LVL=0

      01006787H   BLOCK     CODE     ---       LVL=0
      02000763H   SYMBOL    XDATA    ---       msg
      01006787H   LINE      CODE     ---       #11640
      01006792H   LINE      CODE     ---       #11641
      01006792H   LINE      CODE     ---       #11642
      0100679BH   LINE      CODE     ---       #11643
      0100679BH   LINE      CODE     ---       #11644
      0100679DH   LINE      CODE     ---       #11645
      0100679DH   LINE      CODE     ---       #11647
      010067B1H   LINE      CODE     ---       #11648
      ---         BLOCKEND  ---      ---       LVL=0

      01004C35H   BLOCK     CODE     ---       LVL=0
LX51 LINKER/LOCATER V4.41                                                             05/23/2018  09:43:07  PAGE 136


      ---         BLOCKEND  ---      ---       LVL=0

      01004C3DH   BLOCK     CODE     ---       LVL=0
      02000763H   SYMBOL    XDATA    ---       receive_msg
      02000766H   SYMBOL    XDATA    BYTE      receive_dsn
      02000767H   SYMBOL    XDATA    ---       ack_msg
      0200076AH   SYMBOL    XDATA    ---       ack
      01004C4BH   BLOCK     CODE     NEAR LAB  LVL=1
      0200076DH   SYMBOL    XDATA    BYTE      __nesc_atomic
      01004CC9H   BLOCK     CODE     NEAR LAB  LVL=2
      0200076EH   SYMBOL    XDATA    BYTE      __nesc_temp
      ---         BLOCKEND  ---      ---       LVL=2
      ---         BLOCKEND  ---      ---       LVL=1
      01004C3DH   LINE      CODE     ---       #11651
      01004C4BH   LINE      CODE     ---       #11652
      01004C4BH   LINE      CODE     ---       #11653
      01004C53H   LINE      CODE     ---       #11655
      01004C8EH   LINE      CODE     ---       #11656
      01004CC9H   LINE      CODE     ---       #11658
      01004CC9H   LINE      CODE     ---       #11659
      01004CCFH   LINE      CODE     ---       #11665
      01004CD7H   LINE      CODE     ---       #11667
      01004CDAH   LINE      CODE     ---       #11668
      01004CDAH   LINE      CODE     ---       #11669
      01004CDAH   LINE      CODE     ---       #11670
      01004CDAH   LINE      CODE     ---       #11672
      01004CDAH   LINE      CODE     ---       #11673
      ---         BLOCKEND  ---      ---       LVL=0

      010043E1H   BLOCK     CODE     ---       LVL=0
      02000765H   SYMBOL    XDATA    WORD      addr
      00000002H   SYMBOL    DATA     BYTE      field_id
      00000001H   SYMBOL    DATA     BYTE      dsn
      010043EDH   BLOCK     CODE     NEAR LAB  LVL=1
      02000767H   SYMBOL    XDATA    INT       index
      01004460H   BLOCK     CODE     NEAR LAB  LVL=2
      02000769H   SYMBOL    XDATA    BYTE      __nesc_temp
      ---         BLOCKEND  ---      ---       LVL=2
      010044ADH   BLOCK     CODE     NEAR LAB  LVL=2
      02000769H   SYMBOL    XDATA    BYTE      __nesc_temp
      ---         BLOCKEND  ---      ---       LVL=2
      ---         BLOCKEND  ---      ---       LVL=1
      010043E1H   LINE      CODE     ---       #11676
      010043EDH   LINE      CODE     ---       #11677
      010043EDH   LINE      CODE     ---       #11679
      010043EDH   LINE      CODE     ---       #11680
      010043F8H   LINE      CODE     ---       #11682
      010043FFH   LINE      CODE     ---       #11684
      01004407H   LINE      CODE     ---       #11685
      01004407H   LINE      CODE     ---       #11686
      01004412H   LINE      CODE     ---       #11687
      01004412H   LINE      CODE     ---       #11689
      0100443EH   LINE      CODE     ---       #11690
      0100443EH   LINE      CODE     ---       #11691
      01004460H   LINE      CODE     ---       #11692
      01004460H   LINE      CODE     ---       #11693
      01004460H   LINE      CODE     ---       #11694
      01004465H   LINE      CODE     ---       #11699
      01004467H   LINE      CODE     ---       #11700
      01004467H   LINE      CODE     ---       #11701
      01004467H   LINE      CODE     ---       #11702
      01004467H   LINE      CODE     ---       #11703
      0100448BH   LINE      CODE     ---       #11704
      010044ADH   LINE      CODE     ---       #11706
      010044ADH   LINE      CODE     ---       #11707
LX51 LINKER/LOCATER V4.41                                                             05/23/2018  09:43:07  PAGE 137


      010044B3H   LINE      CODE     ---       #11712
      010044B4H   LINE      CODE     ---       #11713
      010044B4H   LINE      CODE     ---       #11714
      010044B4H   LINE      CODE     ---       #11715
      ---         BLOCKEND  ---      ---       LVL=0

      01006EFFH   BLOCK     CODE     ---       LVL=0
      01006EFFH   LINE      CODE     ---       #11718
      01006F0CH   LINE      CODE     ---       #11720
      01006F0EH   LINE      CODE     ---       #11721
      01006F11H   LINE      CODE     ---       #11722
      01006F13H   LINE      CODE     ---       #11723
      ---         BLOCKEND  ---      ---       LVL=0

      01006E5BH   BLOCK     CODE     ---       LVL=0
      01006E5BH   LINE      CODE     ---       #11731
      01006E6AH   LINE      CODE     ---       #11733
      01006E6CH   LINE      CODE     ---       #11734
      01006E6FH   LINE      CODE     ---       #11735
      01006E71H   LINE      CODE     ---       #11736
      ---         BLOCKEND  ---      ---       LVL=0

      01006E7EH   BLOCK     CODE     ---       LVL=0
      01006E7EH   LINE      CODE     ---       #11739
      01006E8DH   LINE      CODE     ---       #11741
      01006E8FH   LINE      CODE     ---       #11742
      01006E92H   LINE      CODE     ---       #11743
      01006E94H   LINE      CODE     ---       #11744
      ---         BLOCKEND  ---      ---       LVL=0

      01006F1EH   BLOCK     CODE     ---       LVL=0
      01006F1EH   LINE      CODE     ---       #11753
      01006F2BH   LINE      CODE     ---       #11755
      01006F2DH   LINE      CODE     ---       #11756
      01006F30H   LINE      CODE     ---       #11757
      01006F32H   LINE      CODE     ---       #11758
      ---         BLOCKEND  ---      ---       LVL=0

      0100769FH   BLOCK     CODE     ---       LVL=0
      0100769FH   LINE      CODE     ---       #11765
      0100769FH   LINE      CODE     ---       #11767
      010076A1H   LINE      CODE     ---       #11768
      010076A4H   LINE      CODE     ---       #11769
      010076A6H   LINE      CODE     ---       #11770
      ---         BLOCKEND  ---      ---       LVL=0

      010076A7H   BLOCK     CODE     ---       LVL=0
      010076A7H   LINE      CODE     ---       #11778
      010076A7H   LINE      CODE     ---       #11780
      010076A9H   LINE      CODE     ---       #11781
      010076ACH   LINE      CODE     ---       #11782
      010076AEH   LINE      CODE     ---       #11783
      ---         BLOCKEND  ---      ---       LVL=0

      010076AFH   BLOCK     CODE     ---       LVL=0
      010076AFH   LINE      CODE     ---       #11790
      010076AFH   LINE      CODE     ---       #11792
      010076B1H   LINE      CODE     ---       #11793
      010076B4H   LINE      CODE     ---       #11794
      010076B6H   LINE      CODE     ---       #11795
      ---         BLOCKEND  ---      ---       LVL=0

      010076B7H   BLOCK     CODE     ---       LVL=0
      010076B7H   LINE      CODE     ---       #11803
      010076B7H   LINE      CODE     ---       #11805
LX51 LINKER/LOCATER V4.41                                                             05/23/2018  09:43:07  PAGE 138


      010076B9H   LINE      CODE     ---       #11806
      010076BCH   LINE      CODE     ---       #11807
      010076BEH   LINE      CODE     ---       #11808
      ---         BLOCKEND  ---      ---       LVL=0

      010075A4H   BLOCK     CODE     ---       LVL=0
      010075A4H   LINE      CODE     ---       #11816
      010075A6H   LINE      CODE     ---       #11818
      010075A8H   LINE      CODE     ---       #11819
      010075ABH   LINE      CODE     ---       #11820
      010075ADH   LINE      CODE     ---       #11821
      ---         BLOCKEND  ---      ---       LVL=0

      010075B0H   BLOCK     CODE     ---       LVL=0
      010075B0H   LINE      CODE     ---       #11823
      010075B2H   LINE      CODE     ---       #11825
      010075B4H   LINE      CODE     ---       #11826
      010075B7H   LINE      CODE     ---       #11827
      010075B9H   LINE      CODE     ---       #11828
      ---         BLOCKEND  ---      ---       LVL=0

      ---         MODULE    ---      ---       FLASHREAD
      0200087DH   PUBLIC    XDATA    ---       _writeFunction
      020007EFH   PUBLIC    XDATA    ---       writeFunctionBuffer
      0200078DH   PUBLIC    XDATA    BYTE      ?_HalFlashP__HalCC2530FlashWrite?BYTE
      01000086H   PUBLIC    CODE     ---       _HalFlashP__HalCC2530FlashWrite
      0200078DH   PUBLIC    XDATA    BYTE      ?_HalFlashP__HalCC2530FlashRead?BYTE
      0100014DH   PUBLIC    CODE     ---       _HalFlashP__HalCC2530FlashRead
      000000E8H.4 SFRSYM    DATA     BIT       WDTIF
      000000C9H   SFRSYM    DATA     BYTE      WDCTL
      00000080H   SFRSYM    DATA     BYTE      P0
      00000090H   SFRSYM    DATA     BYTE      P1
      000000A0H   SFRSYM    DATA     BYTE      P2
      000000F8H.5 SFRSYM    DATA     BIT       U1SLAVE
      000000D8H   SFRSYM    DATA     BIT       T3OVFIF
      000000D0H.6 SFRSYM    DATA     BIT       AC
      000000A2H   SFRSYM    DATA     BYTE      T2M0
      000000DBH   SFRSYM    DATA     BYTE      T1CC0H
      000000D8H.3 SFRSYM    DATA     BIT       T4OVFIF
      000000A3H   SFRSYM    DATA     BYTE      T2M1
      000000DDH   SFRSYM    DATA     BYTE      T1CC1H
      000000A8H.7 SFRSYM    DATA     BIT       EA
      000000DFH   SFRSYM    DATA     BYTE      T1CC2H
      000000DAH   SFRSYM    DATA     BYTE      T1CC0L
      000000D8H.6 SFRSYM    DATA     BIT       T1OVFIM
      000000DCH   SFRSYM    DATA     BYTE      T1CC1L
      000000DEH   SFRSYM    DATA     BYTE      T1CC2L
      000000A8H   SFRSYM    DATA     BYTE      IEN0
      00000083H   SFRSYM    DATA     BYTE      DPH0
      000000B8H   SFRSYM    DATA     BYTE      IEN1
      00000085H   SFRSYM    DATA     BYTE      DPH1
      000000B8H.5 SFRSYM    DATA     BIT       P0IE
      0000009AH   SFRSYM    DATA     BYTE      IEN2
      000000C0H.5 SFRSYM    DATA     BIT       P0IF
      00000080H   SFRSYM    DATA     BIT       P0_0
      000000E8H.3 SFRSYM    DATA     BIT       P1IF
      000000BBH   SFRSYM    DATA     BYTE      ADCH
      00000090H   SFRSYM    DATA     BIT       P1_0
      00000082H   SFRSYM    DATA     BYTE      DPL0
      00000080H.1 SFRSYM    DATA     BIT       P0_1
      000000F8H.4 SFRSYM    DATA     BIT       U1FE
      000000E8H   SFRSYM    DATA     BIT       P2IF
      000000D8H.7 SFRSYM    DATA     BIT       _TIMIF7
      000000C6H   SFRSYM    DATA     BYTE      CLKCONCMD
      000000A8H   SFRSYM    DATA     BIT       RFERRIE
LX51 LINKER/LOCATER V4.41                                                             05/23/2018  09:43:07  PAGE 139


      000000A0H   SFRSYM    DATA     BIT       P2_0
      00000090H.1 SFRSYM    DATA     BIT       P1_1
      00000084H   SFRSYM    DATA     BYTE      DPL1
      00000080H.2 SFRSYM    DATA     BIT       P0_2
      000000C0H.6 SFRSYM    DATA     BIT       _IRCON6
      000000A0H.1 SFRSYM    DATA     BIT       P2_1
      00000090H.2 SFRSYM    DATA     BIT       P1_2
      00000088H.1 SFRSYM    DATA     BIT       RFERRIF
      00000080H.3 SFRSYM    DATA     BIT       P0_3
      000000B8H.1 SFRSYM    DATA     BIT       T1IE
      000000A0H.2 SFRSYM    DATA     BIT       P2_2
      00000090H.3 SFRSYM    DATA     BIT       P1_3
      00000080H.4 SFRSYM    DATA     BIT       P0_4
      000000C0H.1 SFRSYM    DATA     BIT       T1IF
      000000BAH   SFRSYM    DATA     BYTE      ADCL
      000000B8H.2 SFRSYM    DATA     BIT       T2IE
      000000A0H.3 SFRSYM    DATA     BIT       P2_3
      00000090H.4 SFRSYM    DATA     BIT       P1_4
      00000080H.5 SFRSYM    DATA     BIT       P0_5
      000000C0H.2 SFRSYM    DATA     BIT       T2IF
      000000B8H.3 SFRSYM    DATA     BIT       T3IE
      000000A0H.4 SFRSYM    DATA     BIT       P2_4
      00000090H.5 SFRSYM    DATA     BIT       P1_5
      00000080H.6 SFRSYM    DATA     BIT       P0_6
      000000C0H.3 SFRSYM    DATA     BIT       T3IF
      000000B8H.4 SFRSYM    DATA     BIT       T4IE
      00000090H.6 SFRSYM    DATA     BIT       P1_6
      00000080H.7 SFRSYM    DATA     BIT       P0_7
      000000C0H.4 SFRSYM    DATA     BIT       T4IF
      00000090H.7 SFRSYM    DATA     BIT       P1_7
      000000F2H   SFRSYM    DATA     BYTE      ADCCFG
      000000D0H.7 SFRSYM    DATA     BIT       CY
      000000D5H   SFRSYM    DATA     BYTE      DMA0CFGH
      000000F8H.6 SFRSYM    DATA     BIT       U1RE
      000000D3H   SFRSYM    DATA     BYTE      DMA1CFGH
      000000D4H   SFRSYM    DATA     BYTE      DMA0CFGL
      000000D2H   SFRSYM    DATA     BYTE      DMA1CFGL
      000000C2H   SFRSYM    DATA     BYTE      U0BAUD
      000000A8H.6 SFRSYM    DATA     BIT       _IEN06
      00000081H   SFRSYM    DATA     BYTE      SP
      000000FAH   SFRSYM    DATA     BYTE      U1BAUD
      000000B8H.6 SFRSYM    DATA     BIT       _IEN16
      000000D0H.2 SFRSYM    DATA     BIT       OV
      000000B8H.7 SFRSYM    DATA     BIT       _IEN17
      0000009FH   SFRSYM    DATA     BYTE      FMAP
      0000009EH   SFRSYM    DATA     BYTE      CLKCONSTA
      000000C1H   SFRSYM    DATA     BYTE      U0DBUF
      000000F9H   SFRSYM    DATA     BYTE      U1DBUF
      000000F8H.7 SFRSYM    DATA     BIT       U1MODE
      000000BDH   SFRSYM    DATA     BYTE      RNDH
      000000E8H   SFRSYM    DATA     BYTE      IRCON2
      000000BCH   SFRSYM    DATA     BYTE      RNDL
      00000087H   SFRSYM    DATA     BYTE      PCON
      000000E3H   SFRSYM    DATA     BYTE      T1CNTH
      000000D6H   SFRSYM    DATA     BYTE      DMAARM
      00000088H   SFRSYM    DATA     BYTE      TCON
      000000A8H.5 SFRSYM    DATA     BIT       STIE
      000000C0H.7 SFRSYM    DATA     BIT       STIF
      000000E2H   SFRSYM    DATA     BYTE      T1CNTL
      000000F1H   SFRSYM    DATA     BYTE      PERCFG
      000000C3H   SFRSYM    DATA     BYTE      T2MSEL
      000000A1H   SFRSYM    DATA     BYTE      T2IRQF
      000000D7H   SFRSYM    DATA     BYTE      DMAREQ
      000000C6H   SFRSYM    DATA     BYTE      CLKCON
      00000094H   SFRSYM    DATA     BYTE      T2CTRL
LX51 LINKER/LOCATER V4.41                                                             05/23/2018  09:43:07  PAGE 140


      000000CDH   SFRSYM    DATA     BYTE      T3CC0
      000000B0H   SFRSYM    DATA     BYTE      _SFRB0
      00000099H   SFRSYM    DATA     BYTE      _SFR99
      000000EDH   SFRSYM    DATA     BYTE      T4CC0
      000000CFH   SFRSYM    DATA     BYTE      T3CC1
      000000A8H.2 SFRSYM    DATA     BIT       URX0IE
      0000009CH   SFRSYM    DATA     BYTE      T2CSPCFG
      000000FDH   SFRSYM    DATA     BYTE      P0_DIR
      000000EFH   SFRSYM    DATA     BYTE      T4CC1
      000000E1H   SFRSYM    DATA     BYTE      RFST
      000000D1H   SFRSYM    DATA     BYTE      DMAIRQ
      000000A8H.3 SFRSYM    DATA     BIT       URX1IE
      00000088H.3 SFRSYM    DATA     BIT       URX0IF
      000000FEH   SFRSYM    DATA     BYTE      P1_DIR
      000000F0H   SFRSYM    DATA     BYTE      B
      000000A7H   SFRSYM    DATA     BYTE      T2IRQM
      00000088H.7 SFRSYM    DATA     BIT       URX1IF
      000000FFH   SFRSYM    DATA     BYTE      P2_DIR
      000000F3H   SFRSYM    DATA     BYTE      P0_ALT
      000000E8H.1 SFRSYM    DATA     BIT       UTX0IF
      000000F4H   SFRSYM    DATA     BYTE      P1_ALT
      000000E8H.2 SFRSYM    DATA     BIT       UTX1IF
      000000AFH   SFRSYM    DATA     BYTE      T1STAT
      000000F5H   SFRSYM    DATA     BYTE      P2_ALT
      000000E8H.5 SFRSYM    DATA     BIT       _IRCON25
      000000F8H   SFRSYM    DATA     BIT       U1ACTIVE
      000000E8H.6 SFRSYM    DATA     BIT       _IRCON26
      000000B7H   SFRSYM    DATA     BYTE      _SFRB7
      000000E8H.7 SFRSYM    DATA     BIT       _IRCON27
      000000F8H.2 SFRSYM    DATA     BIT       U1RX_BYTE
      000000E0H   SFRSYM    DATA     BYTE      ACC
      000000C8H   SFRSYM    DATA     BYTE      _SFRC8
      0000009CH   SFRSYM    DATA     BYTE      T2EVTCFG
      000000F8H.1 SFRSYM    DATA     BIT       U1TX_BYTE
      000000BFH   SFRSYM    DATA     BYTE      RFERRF
      000000ADH   SFRSYM    DATA     BYTE      STLOAD
      000000A9H   SFRSYM    DATA     BYTE      IP0
      0000008EH   SFRSYM    DATA     BYTE      _SFR8E
      00000088H.4 SFRSYM    DATA     BIT       _TCON4
      000000C7H   SFRSYM    DATA     BYTE      MEMCTR
      000000B9H   SFRSYM    DATA     BYTE      IP1
      000000AEH   SFRSYM    DATA     BYTE      PMUX
      00000088H.6 SFRSYM    DATA     BIT       _TCON6
      00000088H   SFRSYM    DATA     BIT       IT0
      000000AAH   SFRSYM    DATA     BYTE      _SFRAA
      00000088H.2 SFRSYM    DATA     BIT       IT1
      000000D0H   SFRSYM    DATA     BIT       P
      000000BEH   SFRSYM    DATA     BYTE      SLEEPCMD
      000000D8H.1 SFRSYM    DATA     BIT       T3CH0IF
      000000D8H.2 SFRSYM    DATA     BIT       T3CH1IF
      000000D8H.4 SFRSYM    DATA     BIT       T4CH0IF
      000000D8H.5 SFRSYM    DATA     BIT       T4CH1IF
      000000D0H.3 SFRSYM    DATA     BIT       RS0
      000000D0H.4 SFRSYM    DATA     BIT       RS1
      000000A8H.1 SFRSYM    DATA     BIT       ADCIE
      00000095H   SFRSYM    DATA     BYTE      ST0
      00000089H   SFRSYM    DATA     BYTE      P0IFG
      00000096H   SFRSYM    DATA     BYTE      ST1
      0000008AH   SFRSYM    DATA     BYTE      P1IFG
      00000088H.5 SFRSYM    DATA     BIT       ADCIF
      00000097H   SFRSYM    DATA     BYTE      ST2
      0000008BH   SFRSYM    DATA     BYTE      P2IFG
      000000B4H   SFRSYM    DATA     BYTE      ADCCON1
      000000D9H   SFRSYM    DATA     BYTE      RFD
      000000B5H   SFRSYM    DATA     BYTE      ADCCON2
LX51 LINKER/LOCATER V4.41                                                             05/23/2018  09:43:07  PAGE 141


      000000E5H   SFRSYM    DATA     BYTE      T1CCTL0
      000000B6H   SFRSYM    DATA     BYTE      ADCCON3
      000000ABH   SFRSYM    DATA     BYTE      P0IEN
      000000E6H   SFRSYM    DATA     BYTE      T1CCTL1
      0000008DH   SFRSYM    DATA     BYTE      P1IEN
      000000E7H   SFRSYM    DATA     BYTE      T1CCTL2
      000000CCH   SFRSYM    DATA     BYTE      T3CCTL0
      000000ACH   SFRSYM    DATA     BYTE      P2IEN
      000000FDH   SFRSYM    DATA     BYTE      P0DIR
      000000ECH   SFRSYM    DATA     BYTE      T4CCTL0
      000000CEH   SFRSYM    DATA     BYTE      T3CCTL1
      000000FEH   SFRSYM    DATA     BYTE      P1DIR
      000000EEH   SFRSYM    DATA     BYTE      T4CCTL1
      000000B8H   SFRSYM    DATA     BIT       DMAIE
      000000FFH   SFRSYM    DATA     BYTE      P2DIR
      000000F2H   SFRSYM    DATA     BYTE      APCFG
      000000C5H   SFRSYM    DATA     BYTE      U0GCR
      000000C0H   SFRSYM    DATA     BIT       DMAIF
      000000FCH   SFRSYM    DATA     BYTE      U1GCR
      000000B1H   SFRSYM    DATA     BYTE      ENCDI
      0000009DH   SFRSYM    DATA     BYTE      SLEEPSTA
      00000098H   SFRSYM    DATA     BYTE      S0CON
      000000F3H   SFRSYM    DATA     BYTE      P0SEL
      000000A8H.4 SFRSYM    DATA     BIT       ENCIE
      0000009BH   SFRSYM    DATA     BYTE      S1CON
      000000F4H   SFRSYM    DATA     BYTE      P1SEL
      000000F5H   SFRSYM    DATA     BYTE      P2SEL
      00000092H   SFRSYM    DATA     BYTE      DPS
      0000008FH   SFRSYM    DATA     BYTE      P0INP
      000000F6H   SFRSYM    DATA     BYTE      P1INP
      000000E4H   SFRSYM    DATA     BYTE      T1CTL
      000000F7H   SFRSYM    DATA     BYTE      P2INP
      000000B2H   SFRSYM    DATA     BYTE      ENCDO
      000000CBH   SFRSYM    DATA     BYTE      T3CTL
      00000093H   SFRSYM    DATA     BYTE      MPAGE
      000000EBH   SFRSYM    DATA     BYTE      T4CTL
      000000CAH   SFRSYM    DATA     BYTE      T3CNT
      000000B3H   SFRSYM    DATA     BYTE      ENCCS
      000000EAH   SFRSYM    DATA     BYTE      T4CNT
      00000086H   SFRSYM    DATA     BYTE      U0CSR
      000000F8H   SFRSYM    DATA     BYTE      U1CSR
      000000F8H.3 SFRSYM    DATA     BIT       U1ERR
      000000C4H   SFRSYM    DATA     BYTE      U0UCR
      000000A4H   SFRSYM    DATA     BYTE      T2MOVF0
      000000FBH   SFRSYM    DATA     BYTE      U1UCR
      000000A5H   SFRSYM    DATA     BYTE      T2MOVF1
      000000A6H   SFRSYM    DATA     BYTE      T2MOVF2
      000000D0H.5 SFRSYM    DATA     BIT       F0
      000000D0H.1 SFRSYM    DATA     BIT       F1
      000000A0H.5 SFRSYM    DATA     BIT       _P2_5
      00000098H   SFRSYM    DATA     BIT       ENCIF_0
      00000098H.2 SFRSYM    DATA     BIT       _S0CON2
      000000A0H.6 SFRSYM    DATA     BIT       _P2_6
      00000098H.1 SFRSYM    DATA     BIT       ENCIF_1
      00000098H.3 SFRSYM    DATA     BIT       _S0CON3
      000000A0H.7 SFRSYM    DATA     BIT       _P2_7
      00000098H.4 SFRSYM    DATA     BIT       _S0CON4
      00000098H.5 SFRSYM    DATA     BIT       _S0CON5
      000000D8H   SFRSYM    DATA     BYTE      TIMIF
      000000D0H   SFRSYM    DATA     BYTE      PSW
      000000BEH   SFRSYM    DATA     BYTE      SLEEP
      00000098H.6 SFRSYM    DATA     BIT       _S0CON6
      00000098H.7 SFRSYM    DATA     BIT       _S0CON7
      000000E9H   SFRSYM    DATA     BYTE      RFIRQF0
      000000C0H   SFRSYM    DATA     BYTE      IRCON
LX51 LINKER/LOCATER V4.41                                                             05/23/2018  09:43:07  PAGE 142


      00000091H   SFRSYM    DATA     BYTE      RFIRQF1
      0000008CH   SFRSYM    DATA     BYTE      PICTL

      0100014DH   BLOCK     CODE     ---       LVL=0
      0200078DH   SYMBOL    XDATA    ---       destination
      02000790H   SYMBOL    XDATA    DWORD     source
      02000794H   SYMBOL    XDATA    WORD      length
      0100015CH   BLOCK     CODE     NEAR LAB  LVL=1
      02000796H   SYMBOL    XDATA    BYTE      old_map
      00000003H   SYMBOL    DATA     BYTE      bank
      00000006H   SYMBOL    DATA     WORD      offset
      02000797H   SYMBOL    XDATA    BYTE      old_ea
      ---         BLOCKEND  ---      ---       LVL=1
      0100014DH   LINE      CODE     ---       #54
      0100015CH   LINE      CODE     ---       #55
      0100015CH   LINE      CODE     ---       #61
      01000164H   LINE      CODE     ---       #62
      01000166H   LINE      CODE     ---       #64
      0100017FH   LINE      CODE     ---       #65
      01000194H   LINE      CODE     ---       #68
      0100019AH   LINE      CODE     ---       #71
      010001A2H   LINE      CODE     ---       #73
      010001CCH   LINE      CODE     ---       #76
      010001D2H   LINE      CODE     ---       #78
      010001D8H   LINE      CODE     ---       #80
      ---         BLOCKEND  ---      ---       LVL=0

      01000086H   BLOCK     CODE     ---       LVL=0
      0200078DH   SYMBOL    XDATA    DWORD     destination
      02000791H   SYMBOL    XDATA    ---       source
      02000794H   SYMBOL    XDATA    WORD      length
      01000097H   BLOCK     CODE     NEAR LAB  LVL=1
      00000003H   SYMBOL    DATA     BYTE      page
      00000002H   SYMBOL    DATA     BYTE      row
      00000007H   SYMBOL    DATA     BYTE      location
      02000796H   SYMBOL    XDATA    WORD      old_map
      02000798H   SYMBOL    XDATA    BYTE      old_ea
      ---         BLOCKEND  ---      ---       LVL=1
      01000086H   LINE      CODE     ---       #82
      01000097H   LINE      CODE     ---       #83
      01000097H   LINE      CODE     ---       #88
      0100009FH   LINE      CODE     ---       #89
      010000A1H   LINE      CODE     ---       #91
      010000BAH   LINE      CODE     ---       #92
      010000D2H   LINE      CODE     ---       #93
      010000E3H   LINE      CODE     ---       #95
      010000F3H   LINE      CODE     ---       #96
      01000100H   LINE      CODE     ---       #98
      0100010AH   LINE      CODE     ---       #99
      0100010DH   LINE      CODE     ---       #101
      0100011BH   LINE      CODE     ---       #102
      0100013FH   LINE      CODE     ---       #105
      01000146H   LINE      CODE     ---       #107
      0100014CH   LINE      CODE     ---       #109
      ---         BLOCKEND  ---      ---       LVL=0

      ---         MODULE    ---      ---       A_BOOT_VERSION
      01000702H   PUBLIC    CONST    WORD      PARAM_APRO_VER
      01000700H   PUBLIC    CONST    WORD      PARAM_APRO_ID

      ---         MODULE    ---      ---       A_BOOT
      01000800H   PUBLIC    CODE     NEAR LAB  ABOOTCOPY
      0100094EH   PUBLIC    CODE     NEAR LAB  ABOOTINIT
      010009A1H   PUBLIC    CODE     NEAR LAB  ABOOTREPROGRAM
      010009AFH   PUBLIC    CODE     NEAR LAB  ABOOTRESET
LX51 LINKER/LOCATER V4.41                                                             05/23/2018  09:43:07  PAGE 143


      010009B7H   PUBLIC    CODE     NEAR LAB  ANPABOOTP__ABOOTREPROGRAM

      ---         MODULE    ---      ---       C_ASM
      02000880H   PUBLIC    XDATA    BYTE      ?_OLEDP__DO_DRAW_CHAR?BYTE
      010063E6H   PUBLIC    CODE     NEAR LAB  _OLEDP__DO_DRAW_CHAR
      010074B4H   PUBLIC    CODE     NEAR LAB  _OLEDP__WRITE_BUF
      010074C3H   PUBLIC    CODE     NEAR LAB  _OLEDP__WRITE_CMD
      01006A82H   PUBLIC    CODE     NEAR LAB  OLEDP__DO_CLS

      ---         MODULE    ---      ---       PRINTF
      020007BAH   PUBLIC    XDATA    ---       ?_PRINTF?BYTE
      020007BAH   PUBLIC    XDATA    ---       ?_SPRINTF?BYTE
      01001AAAH   PUBLIC    CODE     ---       _PRINTF
      01001AA4H   PUBLIC    CODE     ---       _SPRINTF

      ---         MODULE    ---      ---       ?C?FPROUND
      01001000H   PUBLIC    CODE     ---       ?C?FPROUND

      ---         MODULE    ---      ---       ?C?FPCONVERT
      0100103DH   PUBLIC    CODE     ---       ?C?FPCONVERT

      ---         MODULE    ---      ---       ?C?FPADD
      01001149H   PUBLIC    CODE     ---       ?C?FPADD
      01001145H   PUBLIC    CODE     ---       ?C?FPSUB

      ---         MODULE    ---      ---       ?C?FPMUL
      0100123AH   PUBLIC    CODE     ---       ?C?FPMUL

      ---         MODULE    ---      ---       ?C?FPDIV
      01001343H   PUBLIC    CODE     ---       ?C?FPDIV

      ---         MODULE    ---      ---       ?C?FTNPWR
      01001410H   PUBLIC    CODE     ---       ?C?FTNPWR

      ---         MODULE    ---      ---       ?C?FPGETOPN
      01001450H   PUBLIC    CODE     ---       ?C?FPGETOPN2
      01001485H   PUBLIC    CODE     ---       ?C?FPNANRESULT
      0100148FH   PUBLIC    CODE     ---       ?C?FPOVERFLOW
      01001467H   PUBLIC    CODE     ---       ?C?FPRESULT
      0100147BH   PUBLIC    CODE     ---       ?C?FPRESULT2
      0100148CH   PUBLIC    CODE     ---       ?C?FPUNDERFLOW

      ---         MODULE    ---      ---       ?C_INIT
      01004E6EH   PUBLIC    CODE     ---       ?C_START

      ---         MODULE    ---      ---       ?C?COPY
      0100156AH   PUBLIC    CODE     ---       ?C?COPY

      ---         MODULE    ---      ---       ?C?CLDPTR
      01001590H   PUBLIC    CODE     ---       ?C?CLDPTR

      ---         MODULE    ---      ---       ?C?CLDOPTR
      010015A9H   PUBLIC    CODE     ---       ?C?CLDOPTR

      ---         MODULE    ---      ---       ?C?CSTPTR
      010015D6H   PUBLIC    CODE     ---       ?C?CSTPTR

      ---         MODULE    ---      ---       ?C?CSTOPTR
      010015E8H   PUBLIC    CODE     ---       ?C?CSTOPTR

      ---         MODULE    ---      ---       ?C?UIDIV
      0100160AH   PUBLIC    CODE     ---       ?C?UIDIV

      ---         MODULE    ---      ---       ?C?ILDIX
      0100165FH   PUBLIC    CODE     ---       ?C?ILDIX
LX51 LINKER/LOCATER V4.41                                                             05/23/2018  09:43:07  PAGE 144



      ---         MODULE    ---      ---       ?C?ILDOPTR
      01001675H   PUBLIC    CODE     ---       ?C?ILDOPTR

      ---         MODULE    ---      ---       ?C?ULDIV
      010016E9H   PUBLIC    CODE     ---       ?C?ULDIV

      ---         MODULE    ---      ---       ?C?SLCMP
      0100177BH   PUBLIC    CODE     ---       ?C?SLCMP

      ---         MODULE    ---      ---       ?C?ULCMP
      01001791H   PUBLIC    CODE     ---       ?C?ULCMP

      ---         MODULE    ---      ---       ?C?ULSHR
      010017A2H   PUBLIC    CODE     ---       ?C?ULSHR

      ---         MODULE    ---      ---       ?C?LSHL
      010017B5H   PUBLIC    CODE     ---       ?C?LSHL

      ---         MODULE    ---      ---       ?C?LLDPTR
      010017C8H   PUBLIC    CODE     ---       ?C?LLDPTR

      ---         MODULE    ---      ---       ?C?LLDOPTR
      010017E8H   PUBLIC    CODE     ---       ?C?LLDOPTR

      ---         MODULE    ---      ---       ?C?LSTPTR
      01001818H   PUBLIC    CODE     ---       ?C?LSTPTR

      ---         MODULE    ---      ---       ?C?LSTOPTR
      01001832H   PUBLIC    CODE     ---       ?C?LSTOPTR

      ---         MODULE    ---      ---       ?C?LLDPTR0
      01001856H   PUBLIC    CODE     ---       ?C?LLDPTR0

      ---         MODULE    ---      ---       ?C?LLDOPTR0
      01001876H   PUBLIC    CODE     ---       ?C?LLDOPTR0

      ---         MODULE    ---      ---       ?C?LLDIXDATA
      010018AFH   PUBLIC    CODE     ---       ?C?LLDIXDATA
      010018A6H   PUBLIC    CODE     ---       ?C?LLDIXDATA1
      010018A8H   PUBLIC    CODE     ---       ?C?LLDIXDATA8

      ---         MODULE    ---      ---       ?C?LSTXDATA
      010018DBH   PUBLIC    CODE     ---       ?C?LSTXDATA

      ---         MODULE    ---      ---       ?C?LSTKXDATA
      010018E7H   PUBLIC    CODE     ---       ?C?LSTKXDATA

      ---         MODULE    ---      ---       ?C?PLDIXDATA
      01001918H   PUBLIC    CODE     ---       ?C?PLDIXDATA

      ---         MODULE    ---      ---       ?C?PSTXDATA
      0100192FH   PUBLIC    CODE     ---       ?C?PSTXDATA

      ---         MODULE    ---      ---       ?C?CCASE
      01001938H   PUBLIC    CODE     ---       ?C?CCASE

      ---         MODULE    ---      ---       ?C?ICALL
      0100195EH   PUBLIC    CODE     ---       ?C?ICALL
      01001962H   PUBLIC    CODE     ---       ?C?ICALL2

      ---         MODULE    ---      ---       ?C?LIMUL
      01001964H   PUBLIC    CODE     ---       ?C?LIMUL

      ---         MODULE    ---      ---       PUTCHAR
LX51 LINKER/LOCATER V4.41                                                             05/23/2018  09:43:07  PAGE 145


      01006C9FH   PUBLIC    CODE     ---       _PUTCHAR

      ---         MODULE    ---      ---       ?C?MEMSET
      01001991H   PUBLIC    CODE     ---       ?C?MEMSET

      ---         MODULE    ---      ---       ?C?LLDIDATA
      010019BDH   PUBLIC    CODE     ---       ?C?LLDIDATA

      ---         MODULE    ---      ---       ?C?LLDXDATA
      010019C9H   PUBLIC    CODE     ---       ?C?LLDXDATA

      ---         MODULE    ---      ---       ?C?LLDPDATA
      010019D5H   PUBLIC    CODE     ---       ?C?LLDPDATA

      ---         MODULE    ---      ---       ?C?LLDCODE
      010019E1H   PUBLIC    CODE     ---       ?C?LLDCODE

      ---         MODULE    ---      ---       ?C?LLDIDATA0
      010019F1H   PUBLIC    CODE     ---       ?C?LLDIDATA0

      ---         MODULE    ---      ---       ?C?LLDXDATA0
      010019FEH   PUBLIC    CODE     ---       ?C?LLDXDATA0

      ---         MODULE    ---      ---       ?C?LLDPDATA0
      01001A0AH   PUBLIC    CODE     ---       ?C?LLDPDATA0

      ---         MODULE    ---      ---       ?C?LLDCODE0
      01001A17H   PUBLIC    CODE     ---       ?C?LLDCODE0

      ---         MODULE    ---      ---       ?C?LSTIDATA
      01001A27H   PUBLIC    CODE     ---       ?C?LSTIDATA

      ---         MODULE    ---      ---       ?C?LSTPDATA
      01001A33H   PUBLIC    CODE     ---       ?C?LSTPDATA



FUNCTION REGISTER MASKS


FUNCTION . . . . . . . . . . . . . . . . . REG MASK
======================================================

___nesc_atomic_end . . . . . . . . . . . . @0x18000800
__nesc_atomic_start. . . . . . . . . . . . @0x18000880
__vector_0 . . . . . . . . . . . . . . . . @0x0e000880
__vector_13. . . . . . . . . . . . . . . . @0x08000800
__vector_14. . . . . . . . . . . . . . . . @0x80000000
__vector_15. . . . . . . . . . . . . . . . @0x08000800
__vector_16. . . . . . . . . . . . . . . . @0x1e0008c0
__vector_2 . . . . . . . . . . . . . . . . @0x1e000880
__vector_3 . . . . . . . . . . . . . . . . @0x80000000
__vector_5 . . . . . . . . . . . . . . . . @0x80000000
__vector_7 . . . . . . . . . . . . . . . . @0x80000000
__vector_9 . . . . . . . . . . . . . . . . @0x1e0008c0



*** WARNING L16: UNCALLED FUNCTION, IGNORED FOR OVERLAY PROCESS
    NAME:    __NESC_DISABLE_INTERRUPT/APP

*** WARNING L16: UNCALLED FUNCTION, IGNORED FOR OVERLAY PROCESS
    NAME:    ?CO?A_BOOT_VERSION

*** WARNING L16: UNCALLED FUNCTION, IGNORED FOR OVERLAY PROCESS
LX51 LINKER/LOCATER V4.41                                                             05/23/2018  09:43:07  PAGE 146


    NAME:    ANPABOOTP__ABOOTREPROGRAM/A_BOOT

*** WARNING L16: UNCALLED FUNCTION, IGNORED FOR OVERLAY PROCESS
    NAME:    _OLEDP__WRITE_BUF/C_ASM

*** WARNING L16: UNCALLED FUNCTION, IGNORED FOR OVERLAY PROCESS
    NAME:    _OLEDP__WRITE_CMD/C_ASM

*** WARNING L16: UNCALLED FUNCTION, IGNORED FOR OVERLAY PROCESS
    NAME:    OLEDP__DO_CLS/C_ASM

*** WARNING L16: UNCALLED FUNCTION, IGNORED FOR OVERLAY PROCESS
    NAME:    _OLEDP__DO_DRAW_CHAR/C_ASM

*** WARNING L9: EMPTY SEGMENTS ENCOUNTERED

Program Size: data=15.1 xdata=2186 const=4 code=27301
LX51 RUN COMPLETE.  8 WARNING(S),  0 ERROR(S)
